ARM Linker, 4.1 [Build 894] [Standard]

==============================================================================

Section Cross References

    startup_stm32f4xx.o(RESET) refers to startup_stm32f4xx.o(STACK) for __initial_sp
    startup_stm32f4xx.o(RESET) refers to startup_stm32f4xx.o(.text) for Reset_Handler
    startup_stm32f4xx.o(RESET) refers to main.o(.text) for HardFault_Handler
    startup_stm32f4xx.o(RESET) refers to drv_system.o(.text) for SysTick_Handler
    startup_stm32f4xx.o(RESET) refers to drv_hcsr04.o(.text) for EXTI4_IRQHandler
    startup_stm32f4xx.o(RESET) refers to drv_pwm.o(.text) for TIM1_CC_IRQHandler
    startup_stm32f4xx.o(RESET) refers to drv_i2c.o(.text) for I2C1_EV_IRQHandler
    startup_stm32f4xx.o(RESET) refers to drv_uart.o(.text) for USART2_IRQHandler
    startup_stm32f4xx.o(.text) refers to system_stm32f4xx.o(.text) for SystemInit
    startup_stm32f4xx.o(.text) refers to entry.o(.ARM.Collect$$$$00000000) for __main
    buzzer.o(.text) refers to drv_system.o(.text) for millis
    buzzer.o(.text) refers to config.o(.text) for feature
    buzzer.o(.text) refers to buzzer.o(.data) for .data
    buzzer.o(.text) refers to mw.o(.data) for toggleBeep
    buzzer.o(.text) refers to mw.o(.bss) for rcOptions
    buzzer.o(.text) refers to config.o(.bss) for cfg
    cli.o(.text) refers to dflti.o(.text) for __aeabi_i2d
    cli.o(.text) refers to dmul.o(.text) for __aeabi_dmul
    cli.o(.text) refers to dadd.o(.text) for __aeabi_dadd
    cli.o(.text) refers to ddiv.o(.text) for __aeabi_ddiv
    cli.o(.text) refers to d2f.o(.text) for __aeabi_d2f
    cli.o(.text) refers to strlen.o(.text) for strlen
    cli.o(.text) refers to strcat.o(.text) for strcat
    cli.o(.text) refers to strncpy.o(.text) for strncpy
    cli.o(.text) refers to strncasecmp.o(.text) for strncasecmp
    cli.o(.text) refers to atoi.o(.text) for atoi
    cli.o(.text) refers to strchr.o(.text) for strchr
    cli.o(.text) refers to printf3.o(i.__0printf$3) for __2printf
    cli.o(.text) refers to config.o(.bss) for cfg
    cli.o(.text) refers to drv_uart.o(.text) for uartPrint
    cli.o(.text) refers to mixer.o(.text) for mixerLoadMix
    cli.o(.text) refers to config.o(.text) for checkFirstTime
    cli.o(.text) refers to drv_system.o(.text) for delay
    cli.o(.text) refers to cli.o(.constdata) for .constdata
    cli.o(.text) refers to config.o(.constdata) for rcChannelLetters
    cli.o(.text) refers to toupper.o(.text) for toupper
    cli.o(.text) refers to strstr.o(.text) for strstr
    cli.o(.text) refers to cli.o(.bss) for .bss
    cli.o(.text) refers to cli.o(.data) for .data
    cli.o(.text) refers to serial.o(.data) for cliMode
    cli.o(.text) refers to mw.o(.data) for batteryCellCount
    cli.o(.text) refers to mw.o(.data) for vbat
    cli.o(.text) refers to drv_i2c.o(.text) for i2cGetErrorCounter
    cli.o(.text) refers to bsearch.o(.text) for bsearch
    cli.o(.text) refers to memseta.o(.text) for __aeabi_memclr
    cli.o(.text) refers to system_stm32f4xx.o(.data) for SystemCoreClock
    cli.o(.text) refers to sensors.o(.data) for accHardware
    cli.o(.constdata) refers to cli.o(.conststring) for .conststring
    cli.o(.constdata) refers to cli.o(.text) for cliAux
    cli.o(.constdata) refers to config.o(.bss) for mcfg
    config.o(.text) refers to strchr.o(.text) for strchr
    config.o(.text) refers to drv_system.o(.text) for failureMode
    config.o(.text) refers to memcpya.o(.text) for __aeabi_memcpy4
    config.o(.text) refers to mw.o(.text) for setPIDController
    config.o(.text) refers to stm32f4xx_flash.o(.text) for FLASH_Unlock
    config.o(.text) refers to memseta.o(.text) for __aeabi_memclr4
    config.o(.text) refers to config.o(.constdata) for .constdata
    config.o(.text) refers to config.o(.bss) for .bss
    config.o(.text) refers to config.o(.data) for .data
    config.o(.text) refers to mw.o(.bss) for lookupPitchRollRC
    gps.o(.text) refers to drv_uart.o(.text) for uart3Write
    gps.o(.text) refers to drv_system.o(.text) for delay
    gps.o(.text) refers to sinf.o(i.__hardfp_sinf) for __hardfp_sinf
    gps.o(.text) refers to cosf.o(i.__hardfp_cosf) for __hardfp_cosf
    gps.o(.text) refers to sqrtf.o(i.__hardfp_sqrtf) for __hardfp_sqrtf
    gps.o(.text) refers to atan2f.o(i.__hardfp_atan2f) for __hardfp_atan2f
    gps.o(.text) refers to config.o(.bss) for mcfg
    gps.o(.text) refers to gps.o(.data) for .data
    gps.o(.text) refers to gps.o(.bss) for .bss
    gps.o(.text) refers to mw.o(.data) for nav
    gps.o(.text) refers to ctype_o.o(.text) for __rt_ctype_table
    gps.o(.text) refers to mw.o(.bss) for f
    gps.o(.text) refers to sensors.o(.data) for heading
    gps.o(.text) refers to mw.o(.data) for GPS_altitude
    gps.o(.text) refers to mw.o(.data) for GPS_speed
    gps.o(.text) refers to mw.o(.data) for GPS_ground_course
    gps.o(.text) refers to mw.o(.data) for GPS_numCh
    gps.o(.text) refers to mw.o(.bss) for GPS_svinfo_chn
    gps.o(.text) refers to mw.o(.bss) for GPS_svinfo_svid
    gps.o(.text) refers to mw.o(.bss) for GPS_svinfo_quality
    gps.o(.text) refers to mw.o(.bss) for GPS_svinfo_cno
    gps.o(.text) refers to mw.o(.data) for GPS_Present
    gps.o(.text) refers to mw.o(.data) for GPS_update
    gps.o(.text) refers to mw.o(.data) for GPS_distanceToHome
    gps.o(.text) refers to mw.o(.data) for GPS_directionToHome
    gps.o(.text) refers to sensors.o(.data) for magHold
    gps.o(.text) refers to config.o(.text) for sensorsSet
    gps.o(.text) refers to gps.o(.constdata) for .constdata
    gps.o(.constdata) refers to gps.o(.conststring) for .conststring
    imu.o(.text) refers to config.o(.text) for sensors
    imu.o(.text) refers to sensors.o(.text) for Mag_init
    imu.o(.text) refers to cosf.o(i.__hardfp_cosf) for __hardfp_cosf
    imu.o(.text) refers to sinf.o(i.__hardfp_sinf) for __hardfp_sinf
    imu.o(.text) refers to drv_system.o(.text) for micros
    imu.o(.text) refers to sqrtf.o(i.__hardfp_sqrtf) for __hardfp_sqrtf
    imu.o(.text) refers to sensors.o(.data) for acc_1G
    imu.o(.text) refers to imu.o(.data) for .data
    imu.o(.text) refers to sensors.o(.bss) for gyro
    imu.o(.text) refers to config.o(.bss) for cfg
    imu.o(.text) refers to imu.o(.bss) for .bss
    imu.o(.text) refers to mw.o(.bss) for f
    imu.o(.text) refers to sensors.o(.data) for heading
    imu.o(.text) refers to mw.o(.text) for annexCode
    imu.o(.text) refers to logf.o(i.__hardfp_logf) for __hardfp_logf
    imu.o(.text) refers to atan2f.o(i.__hardfp_atan2f) for __hardfp_atan2f
    imu.o(.text) refers to mw.o(.data) for annex650_overrun_count
    imu.o(.text) refers to sensors.o(.data) for calibratingB
    main.o(.text) refers to drv_uart.o(.text) for isUartTransmitDMAEmpty
    main.o(.text) refers to drv_system.o(.text) for systemInit
    main.o(.text) refers to config.o(.text) for checkFirstTime
    main.o(.text) refers to drv_adc.o(.text) for adcInit
    main.o(.text) refers to mixer.o(.text) for mixerInit
    main.o(.text) refers to drv_pwm.o(.text) for pwmInit
    main.o(.text) refers to spektrum.o(.text) for spektrumInit
    main.o(.text) refers to gps.o(.text) for gpsInit
    main.o(.text) refers to sensors.o(.text) for Sonar_init
    main.o(.text) refers to imu.o(.text) for imuInit
    main.o(.text) refers to serial.o(.text) for serialInit
    main.o(.text) refers to mw.o(.text) for loop
    main.o(.text) refers to config.o(.bss) for mcfg
    main.o(.text) refers to mixer.o(.data) for useServo
    main.o(.text) refers to mw.o(.data) for rcReadRawFunc
    main.o(.text) refers to sensors.o(.data) for calibratingA
    main.o(.text) refers to sensors.o(.data) for calibratingB
    main.o(.text) refers to mw.o(.bss) for f
    mixer.o(.text) refers to config.o(.text) for feature
    mixer.o(.text) refers to drv_pwm.o(.text) for pwmWriteServo
    mixer.o(.text) refers to config.o(.bss) for mcfg
    mixer.o(.text) refers to mixer.o(.constdata) for .constdata
    mixer.o(.text) refers to mixer.o(.data) for .data
    mixer.o(.text) refers to mixer.o(.bss) for .bss
    mixer.o(.text) refers to mw.o(.data) for axisPID
    mixer.o(.text) refers to imu.o(.data) for angle
    mixer.o(.text) refers to mw.o(.bss) for rcOptions
    mixer.o(.constdata) refers to mixer.o(.constdata) for mixerTri
    mixer.o(.constdata) refers to mixer.o(.constdata) for mixerQuadP
    mixer.o(.constdata) refers to mixer.o(.constdata) for mixerQuadX
    mixer.o(.constdata) refers to mixer.o(.constdata) for mixerBi
    mixer.o(.constdata) refers to mixer.o(.constdata) for mixerY6
    mixer.o(.constdata) refers to mixer.o(.constdata) for mixerHex6P
    mixer.o(.constdata) refers to mixer.o(.constdata) for mixerY4
    mixer.o(.constdata) refers to mixer.o(.constdata) for mixerHex6X
    mixer.o(.constdata) refers to mixer.o(.constdata) for mixerOctoX8
    mixer.o(.constdata) refers to mixer.o(.constdata) for mixerOctoFlatP
    mixer.o(.constdata) refers to mixer.o(.constdata) for mixerOctoFlatX
    mixer.o(.constdata) refers to mixer.o(.constdata) for mixerVtail4
    mw.o(.text) refers to drv_system.o(.text) for delay
    mw.o(.text) refers to cosf.o(i.__hardfp_cosf) for __hardfp_cosf
    mw.o(.text) refers to sinf.o(i.__hardfp_sinf) for __hardfp_sinf
    mw.o(.text) refers to config.o(.text) for feature
    mw.o(.text) refers to drv_adc.o(.text) for adcGetChannel
    mw.o(.text) refers to sensors.o(.text) for batteryAdcToVoltage
    mw.o(.text) refers to buzzer.o(.text) for buzzer
    mw.o(.text) refers to telemetry.o(.text) for initTelemetry
    mw.o(.text) refers to drv_ledring.o(.text) for ledringState
    mw.o(.text) refers to serial.o(.text) for serialCom
    mw.o(.text) refers to drv_pwm.o(.text) for pwmRead
    mw.o(.text) refers to mw.o(.data) for .data
    mw.o(.text) refers to config.o(.bss) for cfg
    mw.o(.text) refers to mw.o(.bss) for .bss
    mw.o(.text) refers to sensors.o(.data) for heading
    mw.o(.text) refers to sensors.o(.data) for calibratingA
    mw.o(.text) refers to sensors.o(.bss) for gyro
    mw.o(.text) refers to spektrum.o(.text) for spektrumFrameComplete
    mw.o(.text) refers to imu.o(.data) for angle
    mw.o(.text) refers to gps.o(.text) for GPS_reset_home_position
    mw.o(.text) refers to sensors.o(.data) for calibratingB
    mw.o(.text) refers to sensors.o(.data) for magHold
    mw.o(.text) refers to imu.o(.text) for getEstimatedAltitude
    mw.o(.text) refers to mixer.o(.text) for mixTable
    mw.o(.data) refers to mw.o(.text) for pidMultiWii
    sensors.o(.text) refers to drv_mpu6000.o(.text) for mpu6000Detect
    sensors.o(.text) refers to drv_l3g4200d.o(.text) for l3g4200dDetect
    sensors.o(.text) refers to drv_mpu3050.o(.text) for mpu3050Detect
    sensors.o(.text) refers to drv_system.o(.text) for failureMode
    sensors.o(.text) refers to drv_adxl345.o(.text) for adxl345Detect
    sensors.o(.text) refers to drv_mma845x.o(.text) for mma8452Detect
    sensors.o(.text) refers to config.o(.text) for sensorsClear
    sensors.o(.text) refers to drv_ms5611.o(.text) for ms5611Detect
    sensors.o(.text) refers to drv_hmc5883l.o(.text) for hmc5883lDetect
    sensors.o(.text) refers to drv_adc.o(.text) for adcGetChannel
    sensors.o(.text) refers to config.o(.bss) for mcfg
    sensors.o(.text) refers to sensors.o(.bss) for .bss
    sensors.o(.text) refers to sensors.o(.data) for .data
    sensors.o(.text) refers to imu.o(.data) for magneticDeclination
    sensors.o(.text) refers to mw.o(.data) for batteryCellCount
    sensors.o(.text) refers to mw.o(.data) for batteryWarningVoltage
    sensors.o(.text) refers to imu.o(.data) for baroPressure
    sensors.o(.text) refers to sqrtf.o(i.__hardfp_sqrtf) for __hardfp_sqrtf
    sensors.o(.text) refers to mw.o(.text) for blinkLED
    sensors.o(.text) refers to drv_hcsr04.o(.text) for hcsr04_init
    sensors.o(.text) refers to imu.o(.data) for gyroZero
    sensors.o(.text) refers to mw.o(.bss) for f
    sensors.o(.text) refers to imu.o(.data) for sonarAlt
    serial.o(.text) refers to drv_uart.o(.text) for uartWrite
    serial.o(.text) refers to memseta.o(.text) for __aeabi_memclr4
    serial.o(.text) refers to strcat.o(.text) for strcat
    serial.o(.text) refers to strlen.o(.text) for strlen
    serial.o(.text) refers to config.o(.text) for sensors
    serial.o(.text) refers to serial.o(.data) for .data
    serial.o(.text) refers to serial.o(.bss) for .bss
    serial.o(.text) refers to config.o(.bss) for mcfg
    serial.o(.text) refers to imu.o(.data) for AltHold
    serial.o(.text) refers to mw.o(.bss) for f
    serial.o(.text) refers to mw.o(.data) for rcData
    serial.o(.text) refers to mw.o(.data) for GPS_altitude
    serial.o(.text) refers to mw.o(.data) for GPS_speed
    serial.o(.text) refers to mw.o(.data) for GPS_update
    serial.o(.text) refers to drv_i2c.o(.text) for i2cGetErrorCounter
    serial.o(.text) refers to gps.o(.text) for GPS_set_next_wp
    serial.o(.text) refers to sensors.o(.data) for magHold
    serial.o(.text) refers to mixer.o(.data) for servo
    serial.o(.text) refers to mixer.o(.bss) for motor
    serial.o(.text) refers to mw.o(.data) for GPS_ground_course
    serial.o(.text) refers to mw.o(.data) for GPS_distanceToHome
    serial.o(.text) refers to mw.o(.data) for GPS_directionToHome
    serial.o(.text) refers to sensors.o(.data) for heading
    serial.o(.text) refers to mw.o(.data) for rssi
    serial.o(.text) refers to serial.o(.constdata) for .constdata
    serial.o(.text) refers to sensors.o(.data) for calibratingA
    serial.o(.text) refers to cli.o(.text) for cliProcess
    serial.o(.text) refers to drv_system.o(.text) for systemReset
    serial.o(.text) refers to telemetry.o(.text) for sendTelemetry
    serial.o(.text) refers to mw.o(.data) for debug
    serial.o(.text) refers to mw.o(.data) for GPS_numCh
    serial.o(.text) refers to mw.o(.bss) for GPS_svinfo_chn
    serial.o(.text) refers to mw.o(.bss) for GPS_svinfo_svid
    serial.o(.text) refers to mw.o(.bss) for GPS_svinfo_quality
    serial.o(.text) refers to mw.o(.bss) for GPS_svinfo_cno
    serial.o(.data) refers to serial.o(.conststring) for .conststring
    spektrum.o(.text) refers to drv_system.o(.text) for micros
    spektrum.o(.text) refers to drv_uart.o(.text) for uart2Init
    spektrum.o(.text) refers to spektrum.o(.data) for .data
    spektrum.o(.text) refers to spektrum.o(.bss) for .bss
    spektrum.o(.text) refers to mw.o(.data) for failsafeCnt
    spektrum.o(.text) refers to config.o(.bss) for mcfg
    telemetry.o(.text) refers to drv_uart.o(.text) for uart2Write
    telemetry.o(.text) refers to serial.o(.text) for serialInit
    telemetry.o(.text) refers to drv_system.o(.text) for millis
    telemetry.o(.text) refers to config.o(.text) for feature
    telemetry.o(.text) refers to mw.o(.data) for GPS_coord
    telemetry.o(.text) refers to telemetry.o(.data) for .data
    telemetry.o(.text) refers to config.o(.bss) for mcfg
    telemetry.o(.text) refers to imu.o(.data) for accSmooth
    telemetry.o(.text) refers to sensors.o(.data) for acc_1G
    telemetry.o(.text) refers to sensors.o(.data) for heading
    telemetry.o(.text) refers to mw.o(.data) for batteryCellCount
    drv_adc.o(.text) refers to stm32f4xx_rcc.o(.text) for RCC_AHB1PeriphClockCmd
    drv_adc.o(.text) refers to stm32f4xx_dma.o(.text) for DMA_DeInit
    drv_adc.o(.text) refers to stm32f4xx_gpio.o(.text) for GPIO_Init
    drv_adc.o(.text) refers to stm32f4xx_adc.o(.text) for ADC_DeInit
    drv_adc.o(.text) refers to drv_adc.o(.data) for .data
    drv_adxl345.o(.text) refers to drv_i2c.o(.text) for i2cRead
    drv_adxl345.o(.text) refers to drv_adxl345.o(.data) for .data
    drv_adxl345.o(.text) refers to sensors.o(.data) for acc_1G
    drv_hcsr04.o(.text) refers to stm32f4xx_gpio.o(.text) for GPIO_ReadInputDataBit
    drv_hcsr04.o(.text) refers to drv_system.o(.text) for micros
    drv_hcsr04.o(.text) refers to stm32f4xx_exti.o(.text) for EXTI_ClearITPendingBit
    drv_hcsr04.o(.text) refers to stm32f4xx_syscfg.o(.text) for SYSCFG_EXTILineConfig
    drv_hcsr04.o(.text) refers to drv_hcsr04.o(.data) for .data
    drv_hmc5883l.o(.text) refers to drv_i2c.o(.text) for i2cRead
    drv_hmc5883l.o(.text) refers to stm32f4xx_gpio.o(.text) for GPIO_Init
    drv_hmc5883l.o(.text) refers to drv_system.o(.text) for delay
    drv_hmc5883l.o(.text) refers to dflti.o(.text) for __aeabi_i2d
    drv_hmc5883l.o(.text) refers to ddiv.o(.text) for __aeabi_ddiv
    drv_hmc5883l.o(.text) refers to fabs.o(i.__hardfp_fabs) for __hardfp_fabs
    drv_hmc5883l.o(.text) refers to d2f.o(.text) for __aeabi_d2f
    drv_hmc5883l.o(.text) refers to drv_hmc5883l.o(.data) for .data
    drv_i2c.o(.text) refers to stm32f4xx_gpio.o(.text) for GPIO_PinAFConfig
    drv_i2c.o(.text) refers to stm32f4xx_i2c.o(.text) for I2C_DeInit
    drv_i2c.o(.text) refers to misc.o(.text) for NVIC_PriorityGroupConfig
    drv_i2c.o(.text) refers to drv_i2c.o(.data) for .data
    drv_i2c.o(.text) refers to drv_system.o(.text) for delayMicroseconds
    drv_l3g4200d.o(.text) refers to drv_i2c.o(.text) for i2cRead
    drv_l3g4200d.o(.text) refers to drv_system.o(.text) for delay
    drv_l3g4200d.o(.text) refers to drv_l3g4200d.o(.data) for .data
    drv_ledring.o(.text) refers to drv_i2c.o(.text) for i2cWrite
    drv_ledring.o(.text) refers to drv_ledring.o(.data) for .data
    drv_ledring.o(.text) refers to mw.o(.bss) for f
    drv_ledring.o(.text) refers to sensors.o(.data) for heading
    drv_ledring.o(.text) refers to imu.o(.data) for angle
    drv_mma845x.o(.text) refers to drv_i2c.o(.text) for i2cRead
    drv_mma845x.o(.text) refers to stm32f4xx_gpio.o(.text) for GPIO_Init
    drv_mma845x.o(.text) refers to sensors.o(.data) for acc_1G
    drv_mma845x.o(.text) refers to drv_mma845x.o(.data) for .data
    drv_mpu3050.o(.text) refers to drv_i2c.o(.text) for i2cRead
    drv_mpu3050.o(.text) refers to drv_system.o(.text) for delay
    drv_mpu3050.o(.text) refers to drv_mpu3050.o(.data) for .data
    drv_mpu6000.o(.text) refers to drv_spi.o(.text) for spi_writeByte
    drv_mpu6000.o(.text) refers to stm32f4xx_gpio.o(.text) for GPIO_Init
    drv_mpu6000.o(.text) refers to drv_system.o(.text) for delay
    drv_mpu6000.o(.text) refers to drv_mpu6000.o(.data) for .data
    drv_mpu6000.o(.text) refers to sensors.o(.data) for acc_1G
    drv_ms5611.o(.text) refers to drv_i2c.o(.text) for i2cWrite
    drv_ms5611.o(.text) refers to drv_system.o(.text) for delay
    drv_ms5611.o(.text) refers to drv_ms5611.o(.bss) for .bss
    drv_ms5611.o(.text) refers to drv_ms5611.o(.data) for .data
    drv_pwm.o(.text) refers to stm32f4xx_tim.o(.text) for TIM_TimeBaseStructInit
    drv_pwm.o(.text) refers to stm32f4xx_gpio.o(.text) for GPIO_StructInit
    drv_pwm.o(.text) refers to misc.o(.text) for NVIC_Init
    drv_pwm.o(.text) refers to system_stm32f4xx.o(.data) for SystemCoreClock
    drv_pwm.o(.text) refers to drv_pwm.o(.bss) for .bss
    drv_pwm.o(.text) refers to drv_pwm.o(.data) for .data
    drv_pwm.o(.text) refers to mw.o(.data) for failsafeCnt
    drv_pwm.o(.data) refers to drv_pwm.o(.constdata) for multiPWM
    drv_pwm.o(.data) refers to drv_pwm.o(.constdata) for multiPPM
    drv_pwm.o(.data) refers to drv_pwm.o(.constdata) for airPWM
    drv_pwm.o(.data) refers to drv_pwm.o(.constdata) for airPPM
    drv_spi.o(.text) refers to stm32f4xx_gpio.o(.text) for GPIO_Init
    drv_spi.o(.text) refers to stm32f4xx_rcc.o(.text) for RCC_APB2PeriphClockCmd
    drv_spi.o(.text) refers to stm32f4xx_spi.o(.text) for SPI_Init
    drv_system.o(.text) refers to stm32f4xx_rcc.o(.text) for RCC_AHB1PeriphClockCmd
    drv_system.o(.text) refers to stm32f4xx_gpio.o(.text) for GPIO_Init
    drv_system.o(.text) refers to system_stm32f4xx.o(.text) for SystemCoreClockUpdate
    drv_system.o(.text) refers to drv_i2c.o(.text) for i2cInit
    drv_system.o(.text) refers to drv_spi.o(.text) for init_SPI1
    drv_system.o(.text) refers to drv_system.o(.data) for .data
    drv_system.o(.text) refers to system_stm32f4xx.o(.data) for SystemCoreClock
    drv_uart.o(.text) refers to stm32f4xx_dma.o(.text) for DMA_Cmd
    drv_uart.o(.text) refers to stm32f4xx_gpio.o(.text) for GPIO_Init
    drv_uart.o(.text) refers to misc.o(.text) for NVIC_Init
    drv_uart.o(.text) refers to stm32f4xx_usart.o(.text) for USART_Init
    drv_uart.o(.text) refers to stm32f4xx_rcc.o(.text) for RCC_APB1PeriphClockCmd
    drv_uart.o(.text) refers to drv_uart.o(.bss) for .bss
    drv_uart.o(.text) refers to drv_uart.o(.data) for .data
    system_stm32f4xx.o(.text) refers to system_stm32f4xx.o(.data) for .data
    stm32f4xx_adc.o(.text) refers to stm32f4xx_rcc.o(.text) for RCC_APB2PeriphResetCmd
    stm32f4xx_can.o(.text) refers to stm32f4xx_rcc.o(.text) for RCC_APB1PeriphResetCmd
    stm32f4xx_cryp.o(.text) refers to stm32f4xx_rcc.o(.text) for RCC_AHB2PeriphResetCmd
    stm32f4xx_cryp_aes.o(.text) refers to stm32f4xx_cryp.o(.text) for CRYP_KeyStructInit
    stm32f4xx_cryp_des.o(.text) refers to stm32f4xx_cryp.o(.text) for CRYP_KeyStructInit
    stm32f4xx_cryp_tdes.o(.text) refers to stm32f4xx_cryp.o(.text) for CRYP_KeyStructInit
    stm32f4xx_dac.o(.text) refers to stm32f4xx_rcc.o(.text) for RCC_APB1PeriphResetCmd
    stm32f4xx_gpio.o(.text) refers to stm32f4xx_rcc.o(.text) for RCC_AHB1PeriphResetCmd
    stm32f4xx_hash.o(.text) refers to stm32f4xx_rcc.o(.text) for RCC_AHB2PeriphResetCmd
    stm32f4xx_hash_md5.o(.text) refers to stm32f4xx_hash.o(.text) for HASH_DeInit
    stm32f4xx_hash_sha1.o(.text) refers to stm32f4xx_hash.o(.text) for HASH_DeInit
    stm32f4xx_i2c.o(.text) refers to stm32f4xx_rcc.o(.text) for RCC_APB1PeriphResetCmd
    stm32f4xx_pwr.o(.text) refers to stm32f4xx_rcc.o(.text) for RCC_APB1PeriphResetCmd
    stm32f4xx_rcc.o(.text) refers to stm32f4xx_rcc.o(.data) for .data
    stm32f4xx_rng.o(.text) refers to stm32f4xx_rcc.o(.text) for RCC_AHB2PeriphResetCmd
    stm32f4xx_sdio.o(.text) refers to stm32f4xx_rcc.o(.text) for RCC_APB2PeriphResetCmd
    stm32f4xx_spi.o(.text) refers to stm32f4xx_rcc.o(.text) for RCC_APB2PeriphResetCmd
    stm32f4xx_syscfg.o(.text) refers to stm32f4xx_rcc.o(.text) for RCC_APB2PeriphResetCmd
    stm32f4xx_tim.o(.text) refers to stm32f4xx_rcc.o(.text) for RCC_APB2PeriphResetCmd
    stm32f4xx_usart.o(.text) refers to stm32f4xx_rcc.o(.text) for RCC_APB2PeriphResetCmd
    stm32f4xx_wwdg.o(.text) refers to stm32f4xx_rcc.o(.text) for RCC_APB1PeriphResetCmd
    atan2f.o(i.__hardfp_atan2f) refers (Special) to iusefp.o(.text) for __I$use$fp
    atan2f.o(i.__hardfp_atan2f) refers to fpclassifyf.o(i.__ARM_fpclassifyf) for __ARM_fpclassifyf
    atan2f.o(i.__hardfp_atan2f) refers to funder.o(i.__mathlib_flt_underflow) for __mathlib_flt_underflow
    atan2f.o(i.__softfp_atan2f) refers (Special) to iusefp.o(.text) for __I$use$fp
    atan2f.o(i.__softfp_atan2f) refers to atan2f.o(i.__hardfp_atan2f) for __hardfp_atan2f
    atan2f.o(i.atan2f) refers (Special) to iusefp.o(.text) for __I$use$fp
    atan2f.o(i.atan2f) refers to atan2f.o(i.__hardfp_atan2f) for __hardfp_atan2f
    atan2f_x.o(i.____hardfp_atan2f$lsc) refers (Special) to iusefp.o(.text) for __I$use$fp
    atan2f_x.o(i.____hardfp_atan2f$lsc) refers to errno.o(i.__set_errno) for __set_errno
    atan2f_x.o(i.____softfp_atan2f$lsc) refers (Special) to iusefp.o(.text) for __I$use$fp
    atan2f_x.o(i.____softfp_atan2f$lsc) refers to atan2f_x.o(i.____hardfp_atan2f$lsc) for ____hardfp_atan2f$lsc
    atan2f_x.o(i.__atan2f$lsc) refers (Special) to iusefp.o(.text) for __I$use$fp
    atan2f_x.o(i.__atan2f$lsc) refers to atan2f_x.o(i.____hardfp_atan2f$lsc) for ____hardfp_atan2f$lsc
    cosf.o(i.__hardfp_cosf) refers (Special) to iusefp.o(.text) for __I$use$fp
    cosf.o(i.__hardfp_cosf) refers to rredf.o(i.__mathlib_rredf2) for __mathlib_rredf2
    cosf.o(i.__hardfp_cosf) refers to errno.o(i.__set_errno) for __set_errno
    cosf.o(i.__softfp_cosf) refers (Special) to iusefp.o(.text) for __I$use$fp
    cosf.o(i.__softfp_cosf) refers to cosf.o(i.__hardfp_cosf) for __hardfp_cosf
    cosf.o(i.cosf) refers (Special) to iusefp.o(.text) for __I$use$fp
    cosf.o(i.cosf) refers to cosf.o(i.__hardfp_cosf) for __hardfp_cosf
    cosf_x.o(i.____hardfp_cosf$lsc) refers (Special) to iusefp.o(.text) for __I$use$fp
    cosf_x.o(i.____hardfp_cosf$lsc) refers to rredf.o(i.__mathlib_rredf2) for __mathlib_rredf2
    cosf_x.o(i.____hardfp_cosf$lsc) refers to errno.o(i.__set_errno) for __set_errno
    cosf_x.o(i.____softfp_cosf$lsc) refers (Special) to iusefp.o(.text) for __I$use$fp
    cosf_x.o(i.____softfp_cosf$lsc) refers to cosf_x.o(i.____hardfp_cosf$lsc) for ____hardfp_cosf$lsc
    cosf_x.o(i.__cosf$lsc) refers (Special) to iusefp.o(.text) for __I$use$fp
    cosf_x.o(i.__cosf$lsc) refers to cosf_x.o(i.____hardfp_cosf$lsc) for ____hardfp_cosf$lsc
    fabs.o(i.__hardfp_fabs) refers (Special) to iusefp.o(.text) for __I$use$fp
    fabs.o(i.__softfp_fabs) refers (Special) to iusefp.o(.text) for __I$use$fp
    fabs.o(i.fabs) refers (Special) to iusefp.o(.text) for __I$use$fp
    logf.o(i.__hardfp_logf) refers (Special) to iusefp.o(.text) for __I$use$fp
    logf.o(i.__hardfp_logf) refers to errno.o(i.__set_errno) for __set_errno
    logf.o(i.__hardfp_logf) refers to logf.o(.constdata) for .constdata
    logf.o(i.__softfp_logf) refers (Special) to iusefp.o(.text) for __I$use$fp
    logf.o(i.__softfp_logf) refers to logf.o(i.__hardfp_logf) for __hardfp_logf
    logf.o(i.logf) refers (Special) to iusefp.o(.text) for __I$use$fp
    logf.o(i.logf) refers to logf.o(i.__hardfp_logf) for __hardfp_logf
    logf.o(.constdata) refers (Special) to iusefp.o(.text) for __I$use$fp
    logf_x.o(i.____hardfp_logf$lsc) refers (Special) to iusefp.o(.text) for __I$use$fp
    logf_x.o(i.____hardfp_logf$lsc) refers to errno.o(i.__set_errno) for __set_errno
    logf_x.o(i.____hardfp_logf$lsc) refers to logf_x.o(.constdata) for .constdata
    logf_x.o(i.____softfp_logf$lsc) refers (Special) to iusefp.o(.text) for __I$use$fp
    logf_x.o(i.____softfp_logf$lsc) refers to logf_x.o(i.____hardfp_logf$lsc) for ____hardfp_logf$lsc
    logf_x.o(i.__logf$lsc) refers (Special) to iusefp.o(.text) for __I$use$fp
    logf_x.o(i.__logf$lsc) refers to logf_x.o(i.____hardfp_logf$lsc) for ____hardfp_logf$lsc
    logf_x.o(.constdata) refers (Special) to iusefp.o(.text) for __I$use$fp
    sinf.o(i.__hardfp_sinf) refers (Special) to iusefp.o(.text) for __I$use$fp
    sinf.o(i.__hardfp_sinf) refers to rredf.o(i.__mathlib_rredf2) for __mathlib_rredf2
    sinf.o(i.__hardfp_sinf) refers to fpclassifyf.o(i.__ARM_fpclassifyf) for __ARM_fpclassifyf
    sinf.o(i.__hardfp_sinf) refers to funder.o(i.__mathlib_flt_underflow) for __mathlib_flt_underflow
    sinf.o(i.__hardfp_sinf) refers to errno.o(i.__set_errno) for __set_errno
    sinf.o(i.__softfp_sinf) refers (Special) to iusefp.o(.text) for __I$use$fp
    sinf.o(i.__softfp_sinf) refers to sinf.o(i.__hardfp_sinf) for __hardfp_sinf
    sinf.o(i.sinf) refers (Special) to iusefp.o(.text) for __I$use$fp
    sinf.o(i.sinf) refers to sinf.o(i.__hardfp_sinf) for __hardfp_sinf
    sinf_x.o(i.____hardfp_sinf$lsc) refers (Special) to iusefp.o(.text) for __I$use$fp
    sinf_x.o(i.____hardfp_sinf$lsc) refers to rredf.o(i.__mathlib_rredf2) for __mathlib_rredf2
    sinf_x.o(i.____hardfp_sinf$lsc) refers to errno.o(i.__set_errno) for __set_errno
    sinf_x.o(i.____softfp_sinf$lsc) refers (Special) to iusefp.o(.text) for __I$use$fp
    sinf_x.o(i.____softfp_sinf$lsc) refers to sinf_x.o(i.____hardfp_sinf$lsc) for ____hardfp_sinf$lsc
    sinf_x.o(i.__sinf$lsc) refers (Special) to iusefp.o(.text) for __I$use$fp
    sinf_x.o(i.__sinf$lsc) refers to sinf_x.o(i.____hardfp_sinf$lsc) for ____hardfp_sinf$lsc
    sqrtf.o(i.__hardfp_sqrtf) refers (Special) to iusefp.o(.text) for __I$use$fp
    sqrtf.o(i.__hardfp_sqrtf) refers to errno.o(i.__set_errno) for __set_errno
    sqrtf.o(i.__softfp_sqrtf) refers (Special) to iusefp.o(.text) for __I$use$fp
    sqrtf.o(i.__softfp_sqrtf) refers to errno.o(i.__set_errno) for __set_errno
    sqrtf.o(i.sqrtf) refers (Special) to iusefp.o(.text) for __I$use$fp
    sqrtf.o(i.sqrtf) refers to errno.o(i.__set_errno) for __set_errno
    sqrtf_x.o(i.____hardfp_sqrtf$lsc) refers (Special) to iusefp.o(.text) for __I$use$fp
    sqrtf_x.o(i.____hardfp_sqrtf$lsc) refers to errno.o(i.__set_errno) for __set_errno
    sqrtf_x.o(i.____softfp_sqrtf$lsc) refers (Special) to iusefp.o(.text) for __I$use$fp
    sqrtf_x.o(i.____softfp_sqrtf$lsc) refers to errno.o(i.__set_errno) for __set_errno
    sqrtf_x.o(i.__sqrtf$lsc) refers (Special) to iusefp.o(.text) for __I$use$fp
    sqrtf_x.o(i.__sqrtf$lsc) refers to errno.o(i.__set_errno) for __set_errno
    entry.o(.ARM.Collect$$$$00000000) refers (Special) to entry7b.o(.ARM.Collect$$$$00000008) for _main_clock
    entry.o(.ARM.Collect$$$$00000000) refers (Special) to entry8.o(.ARM.Collect$$$$00000009) for _main_init
    entry.o(.ARM.Collect$$$$00000000) refers (Special) to entry5.o(.ARM.Collect$$$$00000004) for _main_scatterload
    entry.o(.ARM.Collect$$$$00000000) refers (Special) to entry2.o(.ARM.Collect$$$$00000001) for _main_stk
    ctype_o.o(.text) refers to ctype_o.o(.constdata) for .constdata
    ctype_o.o(.constdata) refers to ctype_o.o(.constdata) for __ctype_table
    isalnum_o.o(.text) refers to ctype_o.o(.text) for __rt_ctype_table
    isalpha_o.o(.text) refers to ctype_o.o(.text) for __rt_ctype_table
    isblank_o.o(.text) refers to ctype_o.o(.constdata) for __ctype_table
    iscntrl_o.o(.text) refers to ctype_o.o(.text) for __rt_ctype_table
    isdigit_o.o(.text) refers to ctype_o.o(.text) for __rt_ctype_table
    isgraph_o.o(.text) refers to ctype_o.o(.text) for __rt_ctype_table
    islower_o.o(.text) refers to ctype_o.o(.text) for __rt_ctype_table
    isprint_o.o(.text) refers to ctype_o.o(.text) for __rt_ctype_table
    ispunct_o.o(.text) refers to ctype_o.o(.text) for __rt_ctype_table
    isspace_o.o(.text) refers to ctype_o.o(.text) for __rt_ctype_table
    isupper_o.o(.text) refers to ctype_o.o(.text) for __rt_ctype_table
    isxdigit_o.o(.text) refers to ctype_o.o(.text) for __rt_ctype_table
    strncasecmp.o(.text) refers to tolower.o(.text) for tolower
    printfb.o(i.__0fprintf$bare) refers to printfb.o(i._printf_core) for _printf_core
    printfb.o(i.__0fprintf$bare) refers to main.o(.text) for fputc
    printfb.o(i.__0printf$bare) refers to printfb.o(i._printf_core) for _printf_core
    printfb.o(i.__0printf$bare) refers to main.o(.text) for fputc
    printfb.o(i.__0printf$bare) refers to stdout.o(.data) for __stdout
    printfb.o(i.__0snprintf$bare) refers to printfb.o(i._printf_core) for _printf_core
    printfb.o(i.__0snprintf$bare) refers to printfb.o(i._snputc) for _snputc
    printfb.o(i.__0sprintf$bare) refers to printfb.o(i._printf_core) for _printf_core
    printfb.o(i.__0sprintf$bare) refers to printfb.o(i._sputc) for _sputc
    printfb.o(i.__0vfprintf$bare) refers to printfb.o(i._printf_core) for _printf_core
    printfb.o(i.__0vfprintf$bare) refers to main.o(.text) for fputc
    printfb.o(i.__0vprintf$bare) refers to printfb.o(i._printf_core) for _printf_core
    printfb.o(i.__0vprintf$bare) refers to main.o(.text) for fputc
    printfb.o(i.__0vprintf$bare) refers to stdout.o(.data) for __stdout
    printfb.o(i.__0vsnprintf$bare) refers to printfb.o(i._printf_core) for _printf_core
    printfb.o(i.__0vsnprintf$bare) refers to printfb.o(i._snputc) for _snputc
    printfb.o(i.__0vsprintf$bare) refers to printfb.o(i._printf_core) for _printf_core
    printfb.o(i.__0vsprintf$bare) refers to printfb.o(i._sputc) for _sputc
    printf0.o(i.__0fprintf$0) refers to printf0.o(i._printf_core) for _printf_core
    printf0.o(i.__0fprintf$0) refers to main.o(.text) for fputc
    printf0.o(i.__0printf$0) refers to printf0.o(i._printf_core) for _printf_core
    printf0.o(i.__0printf$0) refers to main.o(.text) for fputc
    printf0.o(i.__0printf$0) refers to stdout.o(.data) for __stdout
    printf0.o(i.__0snprintf$0) refers to printf0.o(i._printf_core) for _printf_core
    printf0.o(i.__0snprintf$0) refers to printf0.o(i._snputc) for _snputc
    printf0.o(i.__0sprintf$0) refers to printf0.o(i._printf_core) for _printf_core
    printf0.o(i.__0sprintf$0) refers to printf0.o(i._sputc) for _sputc
    printf0.o(i.__0vfprintf$0) refers to printf0.o(i._printf_core) for _printf_core
    printf0.o(i.__0vfprintf$0) refers to main.o(.text) for fputc
    printf0.o(i.__0vprintf$0) refers to printf0.o(i._printf_core) for _printf_core
    printf0.o(i.__0vprintf$0) refers to main.o(.text) for fputc
    printf0.o(i.__0vprintf$0) refers to stdout.o(.data) for __stdout
    printf0.o(i.__0vsnprintf$0) refers to printf0.o(i._printf_core) for _printf_core
    printf0.o(i.__0vsnprintf$0) refers to printf0.o(i._snputc) for _snputc
    printf0.o(i.__0vsprintf$0) refers to printf0.o(i._printf_core) for _printf_core
    printf0.o(i.__0vsprintf$0) refers to printf0.o(i._sputc) for _sputc
    printf1.o(i.__0fprintf$1) refers to printf1.o(i._printf_core) for _printf_core
    printf1.o(i.__0fprintf$1) refers to main.o(.text) for fputc
    printf1.o(i.__0printf$1) refers to printf1.o(i._printf_core) for _printf_core
    printf1.o(i.__0printf$1) refers to main.o(.text) for fputc
    printf1.o(i.__0printf$1) refers to stdout.o(.data) for __stdout
    printf1.o(i.__0snprintf$1) refers to printf1.o(i._printf_core) for _printf_core
    printf1.o(i.__0snprintf$1) refers to printf1.o(i._snputc) for _snputc
    printf1.o(i.__0sprintf$1) refers to printf1.o(i._printf_core) for _printf_core
    printf1.o(i.__0sprintf$1) refers to printf1.o(i._sputc) for _sputc
    printf1.o(i.__0vfprintf$1) refers to printf1.o(i._printf_core) for _printf_core
    printf1.o(i.__0vfprintf$1) refers to main.o(.text) for fputc
    printf1.o(i.__0vprintf$1) refers to printf1.o(i._printf_core) for _printf_core
    printf1.o(i.__0vprintf$1) refers to main.o(.text) for fputc
    printf1.o(i.__0vprintf$1) refers to stdout.o(.data) for __stdout
    printf1.o(i.__0vsnprintf$1) refers to printf1.o(i._printf_core) for _printf_core
    printf1.o(i.__0vsnprintf$1) refers to printf1.o(i._snputc) for _snputc
    printf1.o(i.__0vsprintf$1) refers to printf1.o(i._printf_core) for _printf_core
    printf1.o(i.__0vsprintf$1) refers to printf1.o(i._sputc) for _sputc
    printf1.o(i._printf_core) refers to uidiv.o(.text) for __aeabi_uidivmod
    printf2.o(i.__0fprintf$2) refers to printf2.o(i._printf_core) for _printf_core
    printf2.o(i.__0fprintf$2) refers to main.o(.text) for fputc
    printf2.o(i.__0printf$2) refers to printf2.o(i._printf_core) for _printf_core
    printf2.o(i.__0printf$2) refers to main.o(.text) for fputc
    printf2.o(i.__0printf$2) refers to stdout.o(.data) for __stdout
    printf2.o(i.__0snprintf$2) refers to printf2.o(i._printf_core) for _printf_core
    printf2.o(i.__0snprintf$2) refers to printf2.o(i._snputc) for _snputc
    printf2.o(i.__0sprintf$2) refers to printf2.o(i._printf_core) for _printf_core
    printf2.o(i.__0sprintf$2) refers to printf2.o(i._sputc) for _sputc
    printf2.o(i.__0vfprintf$2) refers to printf2.o(i._printf_core) for _printf_core
    printf2.o(i.__0vfprintf$2) refers to main.o(.text) for fputc
    printf2.o(i.__0vprintf$2) refers to printf2.o(i._printf_core) for _printf_core
    printf2.o(i.__0vprintf$2) refers to main.o(.text) for fputc
    printf2.o(i.__0vprintf$2) refers to stdout.o(.data) for __stdout
    printf2.o(i.__0vsnprintf$2) refers to printf2.o(i._printf_core) for _printf_core
    printf2.o(i.__0vsnprintf$2) refers to printf2.o(i._snputc) for _snputc
    printf2.o(i.__0vsprintf$2) refers to printf2.o(i._printf_core) for _printf_core
    printf2.o(i.__0vsprintf$2) refers to printf2.o(i._sputc) for _sputc
    printf3.o(i.__0fprintf$3) refers to printf3.o(i._printf_core) for _printf_core
    printf3.o(i.__0fprintf$3) refers to main.o(.text) for fputc
    printf3.o(i.__0printf$3) refers to printf3.o(i._printf_core) for _printf_core
    printf3.o(i.__0printf$3) refers to main.o(.text) for fputc
    printf3.o(i.__0printf$3) refers to stdout.o(.data) for __stdout
    printf3.o(i.__0snprintf$3) refers to printf3.o(i._printf_core) for _printf_core
    printf3.o(i.__0snprintf$3) refers to printf3.o(i._snputc) for _snputc
    printf3.o(i.__0sprintf$3) refers to printf3.o(i._printf_core) for _printf_core
    printf3.o(i.__0sprintf$3) refers to printf3.o(i._sputc) for _sputc
    printf3.o(i.__0vfprintf$3) refers to printf3.o(i._printf_core) for _printf_core
    printf3.o(i.__0vfprintf$3) refers to main.o(.text) for fputc
    printf3.o(i.__0vprintf$3) refers to printf3.o(i._printf_core) for _printf_core
    printf3.o(i.__0vprintf$3) refers to main.o(.text) for fputc
    printf3.o(i.__0vprintf$3) refers to stdout.o(.data) for __stdout
    printf3.o(i.__0vsnprintf$3) refers to printf3.o(i._printf_core) for _printf_core
    printf3.o(i.__0vsnprintf$3) refers to printf3.o(i._snputc) for _snputc
    printf3.o(i.__0vsprintf$3) refers to printf3.o(i._printf_core) for _printf_core
    printf3.o(i.__0vsprintf$3) refers to printf3.o(i._sputc) for _sputc
    printf3.o(i._printf_core) refers to uidiv.o(.text) for __aeabi_uidivmod
    printf4.o(i.__0fprintf$4) refers to printf4.o(i._printf_core) for _printf_core
    printf4.o(i.__0fprintf$4) refers to main.o(.text) for fputc
    printf4.o(i.__0printf$4) refers to printf4.o(i._printf_core) for _printf_core
    printf4.o(i.__0printf$4) refers to main.o(.text) for fputc
    printf4.o(i.__0printf$4) refers to stdout.o(.data) for __stdout
    printf4.o(i.__0snprintf$4) refers to printf4.o(i._printf_core) for _printf_core
    printf4.o(i.__0snprintf$4) refers to printf4.o(i._snputc) for _snputc
    printf4.o(i.__0sprintf$4) refers to printf4.o(i._printf_core) for _printf_core
    printf4.o(i.__0sprintf$4) refers to printf4.o(i._sputc) for _sputc
    printf4.o(i.__0vfprintf$4) refers to printf4.o(i._printf_core) for _printf_core
    printf4.o(i.__0vfprintf$4) refers to main.o(.text) for fputc
    printf4.o(i.__0vprintf$4) refers to printf4.o(i._printf_core) for _printf_core
    printf4.o(i.__0vprintf$4) refers to main.o(.text) for fputc
    printf4.o(i.__0vprintf$4) refers to stdout.o(.data) for __stdout
    printf4.o(i.__0vsnprintf$4) refers to printf4.o(i._printf_core) for _printf_core
    printf4.o(i.__0vsnprintf$4) refers to printf4.o(i._snputc) for _snputc
    printf4.o(i.__0vsprintf$4) refers to printf4.o(i._printf_core) for _printf_core
    printf4.o(i.__0vsprintf$4) refers to printf4.o(i._sputc) for _sputc
    printf4.o(i._printf_core) refers to uldiv.o(.text) for __aeabi_uldivmod
    printf5.o(i.__0fprintf$5) refers to printf5.o(i._printf_core) for _printf_core
    printf5.o(i.__0fprintf$5) refers to main.o(.text) for fputc
    printf5.o(i.__0printf$5) refers to printf5.o(i._printf_core) for _printf_core
    printf5.o(i.__0printf$5) refers to main.o(.text) for fputc
    printf5.o(i.__0printf$5) refers to stdout.o(.data) for __stdout
    printf5.o(i.__0snprintf$5) refers to printf5.o(i._printf_core) for _printf_core
    printf5.o(i.__0snprintf$5) refers to printf5.o(i._snputc) for _snputc
    printf5.o(i.__0sprintf$5) refers to printf5.o(i._printf_core) for _printf_core
    printf5.o(i.__0sprintf$5) refers to printf5.o(i._sputc) for _sputc
    printf5.o(i.__0vfprintf$5) refers to printf5.o(i._printf_core) for _printf_core
    printf5.o(i.__0vfprintf$5) refers to main.o(.text) for fputc
    printf5.o(i.__0vprintf$5) refers to printf5.o(i._printf_core) for _printf_core
    printf5.o(i.__0vprintf$5) refers to main.o(.text) for fputc
    printf5.o(i.__0vprintf$5) refers to stdout.o(.data) for __stdout
    printf5.o(i.__0vsnprintf$5) refers to printf5.o(i._printf_core) for _printf_core
    printf5.o(i.__0vsnprintf$5) refers to printf5.o(i._snputc) for _snputc
    printf5.o(i.__0vsprintf$5) refers to printf5.o(i._printf_core) for _printf_core
    printf5.o(i.__0vsprintf$5) refers to printf5.o(i._sputc) for _sputc
    printf5.o(i._printf_core) refers to uldiv.o(.text) for __aeabi_uldivmod
    printf6.o(i.__0fprintf$6) refers to printf6.o(i._printf_core) for _printf_core
    printf6.o(i.__0fprintf$6) refers to main.o(.text) for fputc
    printf6.o(i.__0printf$6) refers to printf6.o(i._printf_core) for _printf_core
    printf6.o(i.__0printf$6) refers to main.o(.text) for fputc
    printf6.o(i.__0printf$6) refers to stdout.o(.data) for __stdout
    printf6.o(i.__0snprintf$6) refers to printf6.o(i._printf_core) for _printf_core
    printf6.o(i.__0snprintf$6) refers to printf6.o(i._snputc) for _snputc
    printf6.o(i.__0sprintf$6) refers to printf6.o(i._printf_core) for _printf_core
    printf6.o(i.__0sprintf$6) refers to printf6.o(i._sputc) for _sputc
    printf6.o(i.__0vfprintf$6) refers to printf6.o(i._printf_core) for _printf_core
    printf6.o(i.__0vfprintf$6) refers to main.o(.text) for fputc
    printf6.o(i.__0vprintf$6) refers to printf6.o(i._printf_core) for _printf_core
    printf6.o(i.__0vprintf$6) refers to main.o(.text) for fputc
    printf6.o(i.__0vprintf$6) refers to stdout.o(.data) for __stdout
    printf6.o(i.__0vsnprintf$6) refers to printf6.o(i._printf_core) for _printf_core
    printf6.o(i.__0vsnprintf$6) refers to printf6.o(i._snputc) for _snputc
    printf6.o(i.__0vsprintf$6) refers to printf6.o(i._printf_core) for _printf_core
    printf6.o(i.__0vsprintf$6) refers to printf6.o(i._sputc) for _sputc
    printf6.o(i._printf_core) refers to printf6.o(i._printf_pre_padding) for _printf_pre_padding
    printf6.o(i._printf_core) refers to uidiv.o(.text) for __aeabi_uidivmod
    printf6.o(i._printf_core) refers to printf6.o(i._printf_post_padding) for _printf_post_padding
    printf7.o(i.__0fprintf$7) refers to printf7.o(i._printf_core) for _printf_core
    printf7.o(i.__0fprintf$7) refers to main.o(.text) for fputc
    printf7.o(i.__0printf$7) refers to printf7.o(i._printf_core) for _printf_core
    printf7.o(i.__0printf$7) refers to main.o(.text) for fputc
    printf7.o(i.__0printf$7) refers to stdout.o(.data) for __stdout
    printf7.o(i.__0snprintf$7) refers to printf7.o(i._printf_core) for _printf_core
    printf7.o(i.__0snprintf$7) refers to printf7.o(i._snputc) for _snputc
    printf7.o(i.__0sprintf$7) refers to printf7.o(i._printf_core) for _printf_core
    printf7.o(i.__0sprintf$7) refers to printf7.o(i._sputc) for _sputc
    printf7.o(i.__0vfprintf$7) refers to printf7.o(i._printf_core) for _printf_core
    printf7.o(i.__0vfprintf$7) refers to main.o(.text) for fputc
    printf7.o(i.__0vprintf$7) refers to printf7.o(i._printf_core) for _printf_core
    printf7.o(i.__0vprintf$7) refers to main.o(.text) for fputc
    printf7.o(i.__0vprintf$7) refers to stdout.o(.data) for __stdout
    printf7.o(i.__0vsnprintf$7) refers to printf7.o(i._printf_core) for _printf_core
    printf7.o(i.__0vsnprintf$7) refers to printf7.o(i._snputc) for _snputc
    printf7.o(i.__0vsprintf$7) refers to printf7.o(i._printf_core) for _printf_core
    printf7.o(i.__0vsprintf$7) refers to printf7.o(i._sputc) for _sputc
    printf7.o(i._printf_core) refers to printf7.o(i._printf_pre_padding) for _printf_pre_padding
    printf7.o(i._printf_core) refers to uldiv.o(.text) for __aeabi_uldivmod
    printf7.o(i._printf_core) refers to printf7.o(i._printf_post_padding) for _printf_post_padding
    printf8.o(i.__0fprintf$8) refers to printf8.o(i._printf_core) for _printf_core
    printf8.o(i.__0fprintf$8) refers to main.o(.text) for fputc
    printf8.o(i.__0printf$8) refers to printf8.o(i._printf_core) for _printf_core
    printf8.o(i.__0printf$8) refers to main.o(.text) for fputc
    printf8.o(i.__0printf$8) refers to stdout.o(.data) for __stdout
    printf8.o(i.__0snprintf$8) refers to printf8.o(i._printf_core) for _printf_core
    printf8.o(i.__0snprintf$8) refers to printf8.o(i._snputc) for _snputc
    printf8.o(i.__0sprintf$8) refers to printf8.o(i._printf_core) for _printf_core
    printf8.o(i.__0sprintf$8) refers to printf8.o(i._sputc) for _sputc
    printf8.o(i.__0vfprintf$8) refers to printf8.o(i._printf_core) for _printf_core
    printf8.o(i.__0vfprintf$8) refers to main.o(.text) for fputc
    printf8.o(i.__0vprintf$8) refers to printf8.o(i._printf_core) for _printf_core
    printf8.o(i.__0vprintf$8) refers to main.o(.text) for fputc
    printf8.o(i.__0vprintf$8) refers to stdout.o(.data) for __stdout
    printf8.o(i.__0vsnprintf$8) refers to printf8.o(i._printf_core) for _printf_core
    printf8.o(i.__0vsnprintf$8) refers to printf8.o(i._snputc) for _snputc
    printf8.o(i.__0vsprintf$8) refers to printf8.o(i._printf_core) for _printf_core
    printf8.o(i.__0vsprintf$8) refers to printf8.o(i._sputc) for _sputc
    printf8.o(i._printf_core) refers to printf8.o(i._printf_pre_padding) for _printf_pre_padding
    printf8.o(i._printf_core) refers to uldiv.o(.text) for __aeabi_uldivmod
    printf8.o(i._printf_core) refers to printf8.o(i._printf_post_padding) for _printf_post_padding
    printfa.o(i.__0fprintf) refers (Special) to iusefp.o(.text) for __I$use$fp
    printfa.o(i.__0fprintf) refers to printfa.o(i._printf_core) for _printf_core
    printfa.o(i.__0fprintf) refers to main.o(.text) for fputc
    printfa.o(i.__0printf) refers (Special) to iusefp.o(.text) for __I$use$fp
    printfa.o(i.__0printf) refers to printfa.o(i._printf_core) for _printf_core
    printfa.o(i.__0printf) refers to main.o(.text) for fputc
    printfa.o(i.__0printf) refers to stdout.o(.data) for __stdout
    printfa.o(i.__0snprintf) refers (Special) to iusefp.o(.text) for __I$use$fp
    printfa.o(i.__0snprintf) refers to printfa.o(i._printf_core) for _printf_core
    printfa.o(i.__0snprintf) refers to printfa.o(i._snputc) for _snputc
    printfa.o(i.__0sprintf) refers (Special) to iusefp.o(.text) for __I$use$fp
    printfa.o(i.__0sprintf) refers to printfa.o(i._printf_core) for _printf_core
    printfa.o(i.__0sprintf) refers to printfa.o(i._sputc) for _sputc
    printfa.o(i.__0vfprintf) refers (Special) to iusefp.o(.text) for __I$use$fp
    printfa.o(i.__0vfprintf) refers to printfa.o(i._printf_core) for _printf_core
    printfa.o(i.__0vfprintf) refers to main.o(.text) for fputc
    printfa.o(i.__0vprintf) refers (Special) to iusefp.o(.text) for __I$use$fp
    printfa.o(i.__0vprintf) refers to printfa.o(i._printf_core) for _printf_core
    printfa.o(i.__0vprintf) refers to main.o(.text) for fputc
    printfa.o(i.__0vprintf) refers to stdout.o(.data) for __stdout
    printfa.o(i.__0vsnprintf) refers (Special) to iusefp.o(.text) for __I$use$fp
    printfa.o(i.__0vsnprintf) refers to printfa.o(i._printf_core) for _printf_core
    printfa.o(i.__0vsnprintf) refers to printfa.o(i._snputc) for _snputc
    printfa.o(i.__0vsprintf) refers (Special) to iusefp.o(.text) for __I$use$fp
    printfa.o(i.__0vsprintf) refers to printfa.o(i._printf_core) for _printf_core
    printfa.o(i.__0vsprintf) refers to printfa.o(i._sputc) for _sputc
    printfa.o(i._fp_digits) refers (Special) to iusefp.o(.text) for __I$use$fp
    printfa.o(i._fp_digits) refers to dmul.o(.text) for __aeabi_dmul
    printfa.o(i._fp_digits) refers to ddiv.o(.text) for __aeabi_ddiv
    printfa.o(i._fp_digits) refers to cdrcmple.o(.text) for __aeabi_cdrcmple
    printfa.o(i._fp_digits) refers to dadd.o(.text) for __aeabi_dadd
    printfa.o(i._fp_digits) refers to dfixul.o(.text) for __aeabi_d2ulz
    printfa.o(i._fp_digits) refers to uldiv.o(.text) for __aeabi_uldivmod
    printfa.o(i._printf_core) refers (Special) to iusefp.o(.text) for __I$use$fp
    printfa.o(i._printf_core) refers to printfa.o(i._printf_pre_padding) for _printf_pre_padding
    printfa.o(i._printf_core) refers to uldiv.o(.text) for __aeabi_uldivmod
    printfa.o(i._printf_core) refers to printfa.o(i._printf_post_padding) for _printf_post_padding
    printfa.o(i._printf_core) refers to printfa.o(i._fp_digits) for _fp_digits
    printfa.o(i._printf_core) refers to uidiv.o(.text) for __aeabi_uidivmod
    printfa.o(i._printf_post_padding) refers (Special) to iusefp.o(.text) for __I$use$fp
    printfa.o(i._printf_pre_padding) refers (Special) to iusefp.o(.text) for __I$use$fp
    printfa.o(i._snputc) refers (Special) to iusefp.o(.text) for __I$use$fp
    printfa.o(i._sputc) refers (Special) to iusefp.o(.text) for __I$use$fp
    atoi.o(.text) refers to errno.o(i.__aeabi_errno_addr) for __aeabi_errno_addr
    atoi.o(.text) refers to strtol.o(.text) for strtol
    dadd.o(.text) refers (Special) to iusefp.o(.text) for __I$use$fp
    dadd.o(.text) refers to llshl.o(.text) for __aeabi_llsl
    dadd.o(.text) refers to llsshr.o(.text) for __aeabi_lasr
    dadd.o(.text) refers to depilogue.o(.text) for _double_epilogue
    dmul.o(.text) refers (Special) to iusefp.o(.text) for __I$use$fp
    dmul.o(.text) refers to depilogue.o(.text) for _double_epilogue
    ddiv.o(.text) refers (Special) to iusefp.o(.text) for __I$use$fp
    ddiv.o(.text) refers to depilogue.o(.text) for _double_round
    dflti.o(.text) refers (Special) to iusefp.o(.text) for __I$use$fp
    dflti.o(.text) refers to depilogue.o(.text) for _double_epilogue
    d2f.o(.text) refers (Special) to iusefp.o(.text) for __I$use$fp
    d2f.o(.text) refers to fepilogue.o(.text) for _float_round
    fpclassifyf.o(i.__ARM_fpclassifyf) refers (Special) to iusefp.o(.text) for __I$use$fp
    rredf.o(i.__mathlib_rredf2) refers (Special) to iusefp.o(.text) for __I$use$fp
    rredf.o(i.__mathlib_rredf2) refers to rredf.o(.constdata) for .constdata
    rredf.o(.constdata) refers (Special) to iusefp.o(.text) for __I$use$fp
    entry2.o(.ARM.Collect$$$$00000001) refers to entry2.o(.ARM.Collect$$$$00002712) for __lit__00000000
    entry2.o(.ARM.Collect$$$$00002712) refers to startup_stm32f4xx.o(STACK) for __initial_sp
    entry2.o(__vectab_stack_and_reset_area) refers to startup_stm32f4xx.o(STACK) for __initial_sp
    entry2.o(__vectab_stack_and_reset_area) refers to entry.o(.ARM.Collect$$$$00000000) for __main
    entry5.o(.ARM.Collect$$$$00000004) refers to init.o(.text) for __scatterload
    entry8.o(.ARM.Collect$$$$00000009) refers to main.o(.text) for main
    uldiv.o(.text) refers to llushr.o(.text) for __aeabi_llsr
    uldiv.o(.text) refers to llshl.o(.text) for __aeabi_llsl
    errno.o(i.__aeabi_errno_addr) refers to errno.o(.data) for .data
    errno.o(i.__read_errno) refers to errno.o(.data) for .data
    errno.o(i.__set_errno) refers to errno.o(.data) for .data
    strtol.o(.text) refers to ctype_o.o(.text) for __rt_ctype_table
    strtol.o(.text) refers to _strtoul.o(.text) for _strtoul
    strtol.o(.text) refers to errno.o(i.__aeabi_errno_addr) for __aeabi_errno_addr
    depilogue.o(.text) refers to llshl.o(.text) for __aeabi_llsl
    depilogue.o(.text) refers to llushr.o(.text) for __aeabi_llsr
    dfixul.o(.text) refers to llushr.o(.text) for __aeabi_llsr
    dfixul.o(.text) refers to llshl.o(.text) for __aeabi_llsl
    init.o(.text) refers to entry5.o(.ARM.Collect$$$$00000004) for __main_after_scatterload
    _strtoul.o(.text) refers to _chval.o(.text) for _chval
    _strtoul.o(.text) refers to errno.o(i.__aeabi_errno_addr) for __aeabi_errno_addr


==============================================================================

Removing Unused input sections from the image.

    Removing startup_stm32f4xx.o(HEAP), (512 bytes).
    Removing buzzer.o(.emb_text), (8 bytes).
    Removing cli.o(.emb_text), (8 bytes).
    Removing config.o(.emb_text), (8 bytes).
    Removing gps.o(.emb_text), (8 bytes).
    Removing gps.o(.data), (2 bytes).
    Removing gps.o(.data), (2 bytes).
    Removing gps.o(.data), (1 bytes).
    Removing gps.o(.data), (1 bytes).
    Removing gps.o(.data), (1 bytes).
    Removing imu.o(.emb_text), (8 bytes).
    Removing main.o(.emb_text), (8 bytes).
    Removing mixer.o(.emb_text), (8 bytes).
    Removing mw.o(.emb_text), (8 bytes).
    Removing mw.o(.data), (1 bytes).
    Removing printf.o(.emb_text), (8 bytes).
    Removing sensors.o(.emb_text), (8 bytes).
    Removing serial.o(.emb_text), (8 bytes).
    Removing serial.o(.constdata), (20 bytes).
    Removing spektrum.o(.emb_text), (8 bytes).
    Removing telemetry.o(.emb_text), (8 bytes).
    Removing drv_adc.o(.emb_text), (8 bytes).
    Removing drv_adxl345.o(.emb_text), (8 bytes).
    Removing drv_hcsr04.o(.emb_text), (8 bytes).
    Removing drv_hmc5883l.o(.emb_text), (8 bytes).
    Removing drv_i2c.o(.emb_text), (8 bytes).
    Removing drv_i2c_soft.o(.emb_text), (8 bytes).
    Removing drv_l3g4200d.o(.emb_text), (8 bytes).
    Removing drv_ledring.o(.emb_text), (8 bytes).
    Removing drv_mma845x.o(.emb_text), (8 bytes).
    Removing drv_mpu3050.o(.emb_text), (8 bytes).
    Removing drv_mpu6000.o(.emb_text), (8 bytes).
    Removing drv_ms5611.o(.emb_text), (8 bytes).
    Removing drv_pwm.o(.emb_text), (8 bytes).
    Removing drv_spi.o(.emb_text), (8 bytes).
    Removing drv_system.o(.emb_text), (8 bytes).
    Removing drv_uart.o(.emb_text), (8 bytes).
    Removing system_stm32f4xx.o(.emb_text), (8 bytes).
    Removing misc.o(.emb_text), (8 bytes).
    Removing stm32f4xx_adc.o(.emb_text), (8 bytes).
    Removing stm32f4xx_can.o(.emb_text), (8 bytes).
    Removing stm32f4xx_can.o(.text), (1792 bytes).
    Removing stm32f4xx_crc.o(.emb_text), (8 bytes).
    Removing stm32f4xx_crc.o(.text), (64 bytes).
    Removing stm32f4xx_cryp.o(.emb_text), (8 bytes).
    Removing stm32f4xx_cryp.o(.text), (544 bytes).
    Removing stm32f4xx_cryp_aes.o(.emb_text), (8 bytes).
    Removing stm32f4xx_cryp_aes.o(.text), (1210 bytes).
    Removing stm32f4xx_cryp_des.o(.emb_text), (8 bytes).
    Removing stm32f4xx_cryp_des.o(.text), (384 bytes).
    Removing stm32f4xx_cryp_tdes.o(.emb_text), (8 bytes).
    Removing stm32f4xx_cryp_tdes.o(.text), (436 bytes).
    Removing stm32f4xx_dac.o(.emb_text), (8 bytes).
    Removing stm32f4xx_dac.o(.text), (324 bytes).
    Removing stm32f4xx_dbgmcu.o(.emb_text), (8 bytes).
    Removing stm32f4xx_dbgmcu.o(.text), (76 bytes).
    Removing stm32f4xx_dcmi.o(.emb_text), (8 bytes).
    Removing stm32f4xx_dcmi.o(.text), (312 bytes).
    Removing stm32f4xx_dma.o(.emb_text), (8 bytes).
    Removing stm32f4xx_exti.o(.emb_text), (8 bytes).
    Removing stm32f4xx_flash.o(.emb_text), (8 bytes).
    Removing stm32f4xx_fsmc.o(.emb_text), (8 bytes).
    Removing stm32f4xx_fsmc.o(.text), (1164 bytes).
    Removing stm32f4xx_gpio.o(.emb_text), (8 bytes).
    Removing stm32f4xx_hash.o(.emb_text), (8 bytes).
    Removing stm32f4xx_hash.o(.text), (436 bytes).
    Removing stm32f4xx_hash_md5.o(.emb_text), (8 bytes).
    Removing stm32f4xx_hash_md5.o(.text), (434 bytes).
    Removing stm32f4xx_hash_sha1.o(.emb_text), (8 bytes).
    Removing stm32f4xx_hash_sha1.o(.text), (442 bytes).
    Removing stm32f4xx_i2c.o(.emb_text), (8 bytes).
    Removing stm32f4xx_iwdg.o(.emb_text), (8 bytes).
    Removing stm32f4xx_iwdg.o(.text), (60 bytes).
    Removing stm32f4xx_pwr.o(.emb_text), (8 bytes).
    Removing stm32f4xx_pwr.o(.text), (212 bytes).
    Removing stm32f4xx_rcc.o(.emb_text), (8 bytes).
    Removing stm32f4xx_rng.o(.emb_text), (8 bytes).
    Removing stm32f4xx_rng.o(.text), (140 bytes).
    Removing stm32f4xx_rtc.o(.emb_text), (8 bytes).
    Removing stm32f4xx_rtc.o(.text), (2584 bytes).
    Removing stm32f4xx_sdio.o(.emb_text), (8 bytes).
    Removing stm32f4xx_sdio.o(.text), (440 bytes).
    Removing stm32f4xx_spi.o(.emb_text), (8 bytes).
    Removing stm32f4xx_syscfg.o(.emb_text), (8 bytes).
    Removing stm32f4xx_tim.o(.emb_text), (8 bytes).
    Removing stm32f4xx_usart.o(.emb_text), (8 bytes).
    Removing stm32f4xx_wwdg.o(.emb_text), (8 bytes).
    Removing stm32f4xx_wwdg.o(.text), (124 bytes).
    Removing dfixul.o(.text), (48 bytes).
    Removing cdrcmple.o(.text), (40 bytes).

90 unused section(s) (total 12294 bytes) removed from the image.

==============================================================================

Image Symbol Table

    Local Symbols

    Symbol Name                              Value     Ov Type        Size  Object(Section)

    ../../../cmprslib/zerorunl2.c            0x00000000   Number         0  __dczerorl2.o ABSOLUTE
    ../../atan2f.c                           0x00000000   Number         0  atan2f_x.o ABSOLUTE
    ../../atan2f.c                           0x00000000   Number         0  atan2f.o ABSOLUTE
    ../../cosf.c                             0x00000000   Number         0  cosf.o ABSOLUTE
    ../../cosf.c                             0x00000000   Number         0  cosf_x.o ABSOLUTE
    ../../fabs.c                             0x00000000   Number         0  fabs.o ABSOLUTE
    ../../fpclassifyf.c                      0x00000000   Number         0  fpclassifyf.o ABSOLUTE
    ../../funder.c                           0x00000000   Number         0  funder.o ABSOLUTE
    ../../logf.c                             0x00000000   Number         0  logf.o ABSOLUTE
    ../../logf.c                             0x00000000   Number         0  logf_x.o ABSOLUTE
    ../../microlib/ctype/ctype.c             0x00000000   Number         0  iscntrl_o.o ABSOLUTE
    ../../microlib/ctype/ctype.c             0x00000000   Number         0  isblank_o.o ABSOLUTE
    ../../microlib/ctype/ctype.c             0x00000000   Number         0  isalpha_o.o ABSOLUTE
    ../../microlib/ctype/ctype.c             0x00000000   Number         0  isalnum_o.o ABSOLUTE
    ../../microlib/ctype/ctype.c             0x00000000   Number         0  ctype_o.o ABSOLUTE
    ../../microlib/ctype/ctype.c             0x00000000   Number         0  isxdigit_o.o ABSOLUTE
    ../../microlib/ctype/ctype.c             0x00000000   Number         0  isupper_o.o ABSOLUTE
    ../../microlib/ctype/ctype.c             0x00000000   Number         0  isspace_o.o ABSOLUTE
    ../../microlib/ctype/ctype.c             0x00000000   Number         0  ispunct_o.o ABSOLUTE
    ../../microlib/ctype/ctype.c             0x00000000   Number         0  isprint_o.o ABSOLUTE
    ../../microlib/ctype/ctype.c             0x00000000   Number         0  islower_o.o ABSOLUTE
    ../../microlib/ctype/ctype.c             0x00000000   Number         0  isgraph_o.o ABSOLUTE
    ../../microlib/ctype/ctype.c             0x00000000   Number         0  isdigit_o.o ABSOLUTE
    ../../microlib/ctype/tolower.c           0x00000000   Number         0  tolower.o ABSOLUTE
    ../../microlib/ctype/toupper.c           0x00000000   Number         0  toupper.o ABSOLUTE
    ../../microlib/d2f.c                     0x00000000   Number         0  d2f.o ABSOLUTE
    ../../microlib/division.c                0x00000000   Number         0  uldiv.o ABSOLUTE
    ../../microlib/division.c                0x00000000   Number         0  uidiv.o ABSOLUTE
    ../../microlib/errno.c                   0x00000000   Number         0  errno.o ABSOLUTE
    ../../microlib/fpadd.c                   0x00000000   Number         0  dadd.o ABSOLUTE
    ../../microlib/fpdiv.c                   0x00000000   Number         0  ddiv.o ABSOLUTE
    ../../microlib/fpepilogue.c              0x00000000   Number         0  depilogue.o ABSOLUTE
    ../../microlib/fpepilogue.c              0x00000000   Number         0  fepilogue.o ABSOLUTE
    ../../microlib/fpfix.c                   0x00000000   Number         0  dfixul.o ABSOLUTE
    ../../microlib/fpflt.c                   0x00000000   Number         0  dflti.o ABSOLUTE
    ../../microlib/fpmul.c                   0x00000000   Number         0  dmul.o ABSOLUTE
    ../../microlib/init/entry.s              0x00000000   Number         0  entry7b.o ABSOLUTE
    ../../microlib/init/entry.s              0x00000000   Number         0  entry.o ABSOLUTE
    ../../microlib/init/entry.s              0x00000000   Number         0  entry8.o ABSOLUTE
    ../../microlib/init/entry.s              0x00000000   Number         0  entry2.o ABSOLUTE
    ../../microlib/init/entry.s              0x00000000   Number         0  entry5.o ABSOLUTE
    ../../microlib/init/entry.s              0x00000000   Number         0  entry7a.o ABSOLUTE
    ../../microlib/longlong.c                0x00000000   Number         0  llshl.o ABSOLUTE
    ../../microlib/longlong.c                0x00000000   Number         0  llsshr.o ABSOLUTE
    ../../microlib/longlong.c                0x00000000   Number         0  llushr.o ABSOLUTE
    ../../microlib/printf/printf.c           0x00000000   Number         0  printf2.o ABSOLUTE
    ../../microlib/printf/printf.c           0x00000000   Number         0  printf1.o ABSOLUTE
    ../../microlib/printf/printf.c           0x00000000   Number         0  printf0.o ABSOLUTE
    ../../microlib/printf/printf.c           0x00000000   Number         0  printfa.o ABSOLUTE
    ../../microlib/printf/printf.c           0x00000000   Number         0  printf8.o ABSOLUTE
    ../../microlib/printf/printf.c           0x00000000   Number         0  printf7.o ABSOLUTE
    ../../microlib/printf/printf.c           0x00000000   Number         0  printf6.o ABSOLUTE
    ../../microlib/printf/printf.c           0x00000000   Number         0  printf5.o ABSOLUTE
    ../../microlib/printf/printf.c           0x00000000   Number         0  printf4.o ABSOLUTE
    ../../microlib/printf/printf.c           0x00000000   Number         0  printfb.o ABSOLUTE
    ../../microlib/printf/printf.c           0x00000000   Number         0  printf3.o ABSOLUTE
    ../../microlib/printf/stubs.s            0x00000000   Number         0  stubs.o ABSOLUTE
    ../../microlib/stdio/streams.c           0x00000000   Number         0  stdout.o ABSOLUTE
    ../../microlib/stdlib/bsearch.c          0x00000000   Number         0  bsearch.o ABSOLUTE
    ../../microlib/string/memcpy.c           0x00000000   Number         0  memcpya.o ABSOLUTE
    ../../microlib/string/memcpy.c           0x00000000   Number         0  memcpyb.o ABSOLUTE
    ../../microlib/string/memset.c           0x00000000   Number         0  memseta.o ABSOLUTE
    ../../microlib/string/strcat.c           0x00000000   Number         0  strcat.o ABSOLUTE
    ../../microlib/string/strchr.c           0x00000000   Number         0  strchr.o ABSOLUTE
    ../../microlib/string/strlen.c           0x00000000   Number         0  strlen.o ABSOLUTE
    ../../microlib/string/strncasecmp.c      0x00000000   Number         0  strncasecmp.o ABSOLUTE
    ../../microlib/string/strncpy.c          0x00000000   Number         0  strncpy.o ABSOLUTE
    ../../microlib/string/strstr.c           0x00000000   Number         0  strstr.o ABSOLUTE
    ../../microlib/stubs.s                   0x00000000   Number         0  iusefp.o ABSOLUTE
    ../../rredf.c                            0x00000000   Number         0  rredf.o ABSOLUTE
    ../../scanf.c                            0x00000000   Number         0  _strtoul.o ABSOLUTE
    ../../scanf.c                            0x00000000   Number         0  strtol.o ABSOLUTE
    ../../scanf.c                            0x00000000   Number         0  atoi.o ABSOLUTE
    ../../scanf.c                            0x00000000   Number         0  _chval.o ABSOLUTE
    ../../sinf.c                             0x00000000   Number         0  sinf_x.o ABSOLUTE
    ../../sinf.c                             0x00000000   Number         0  sinf.o ABSOLUTE
    ../../sqrtf.c                            0x00000000   Number         0  sqrtf.o ABSOLUTE
    ../../sqrtf.c                            0x00000000   Number         0  sqrtf_x.o ABSOLUTE
    cdrcmple.s                               0x00000000   Number         0  cdrcmple.o ABSOLUTE
    dc.s                                     0x00000000   Number         0  dc.o ABSOLUTE
    handlers.s                               0x00000000   Number         0  handlers.o ABSOLUTE
    init.s                                   0x00000000   Number         0  init.o ABSOLUTE
    lib\CMSIS\ST\STM32F4xx\Source\Templates\system_stm32f4xx.c 0x00000000   Number         0  system_stm32f4xx.o ABSOLUTE
    lib\STM32F4xx_StdPeriph_Driver\src\misc.c 0x00000000   Number         0  misc.o ABSOLUTE
    lib\STM32F4xx_StdPeriph_Driver\src\stm32f4xx_adc.c 0x00000000   Number         0  stm32f4xx_adc.o ABSOLUTE
    lib\STM32F4xx_StdPeriph_Driver\src\stm32f4xx_can.c 0x00000000   Number         0  stm32f4xx_can.o ABSOLUTE
    lib\STM32F4xx_StdPeriph_Driver\src\stm32f4xx_crc.c 0x00000000   Number         0  stm32f4xx_crc.o ABSOLUTE
    lib\STM32F4xx_StdPeriph_Driver\src\stm32f4xx_cryp.c 0x00000000   Number         0  stm32f4xx_cryp.o ABSOLUTE
    lib\STM32F4xx_StdPeriph_Driver\src\stm32f4xx_cryp_aes.c 0x00000000   Number         0  stm32f4xx_cryp_aes.o ABSOLUTE
    lib\STM32F4xx_StdPeriph_Driver\src\stm32f4xx_cryp_des.c 0x00000000   Number         0  stm32f4xx_cryp_des.o ABSOLUTE
    lib\STM32F4xx_StdPeriph_Driver\src\stm32f4xx_cryp_tdes.c 0x00000000   Number         0  stm32f4xx_cryp_tdes.o ABSOLUTE
    lib\STM32F4xx_StdPeriph_Driver\src\stm32f4xx_dac.c 0x00000000   Number         0  stm32f4xx_dac.o ABSOLUTE
    lib\STM32F4xx_StdPeriph_Driver\src\stm32f4xx_dbgmcu.c 0x00000000   Number         0  stm32f4xx_dbgmcu.o ABSOLUTE
    lib\STM32F4xx_StdPeriph_Driver\src\stm32f4xx_dcmi.c 0x00000000   Number         0  stm32f4xx_dcmi.o ABSOLUTE
    lib\STM32F4xx_StdPeriph_Driver\src\stm32f4xx_dma.c 0x00000000   Number         0  stm32f4xx_dma.o ABSOLUTE
    lib\STM32F4xx_StdPeriph_Driver\src\stm32f4xx_exti.c 0x00000000   Number         0  stm32f4xx_exti.o ABSOLUTE
    lib\STM32F4xx_StdPeriph_Driver\src\stm32f4xx_flash.c 0x00000000   Number         0  stm32f4xx_flash.o ABSOLUTE
    lib\STM32F4xx_StdPeriph_Driver\src\stm32f4xx_fsmc.c 0x00000000   Number         0  stm32f4xx_fsmc.o ABSOLUTE
    lib\STM32F4xx_StdPeriph_Driver\src\stm32f4xx_gpio.c 0x00000000   Number         0  stm32f4xx_gpio.o ABSOLUTE
    lib\STM32F4xx_StdPeriph_Driver\src\stm32f4xx_hash.c 0x00000000   Number         0  stm32f4xx_hash.o ABSOLUTE
    lib\STM32F4xx_StdPeriph_Driver\src\stm32f4xx_hash_md5.c 0x00000000   Number         0  stm32f4xx_hash_md5.o ABSOLUTE
    lib\STM32F4xx_StdPeriph_Driver\src\stm32f4xx_hash_sha1.c 0x00000000   Number         0  stm32f4xx_hash_sha1.o ABSOLUTE
    lib\STM32F4xx_StdPeriph_Driver\src\stm32f4xx_i2c.c 0x00000000   Number         0  stm32f4xx_i2c.o ABSOLUTE
    lib\STM32F4xx_StdPeriph_Driver\src\stm32f4xx_iwdg.c 0x00000000   Number         0  stm32f4xx_iwdg.o ABSOLUTE
    lib\STM32F4xx_StdPeriph_Driver\src\stm32f4xx_pwr.c 0x00000000   Number         0  stm32f4xx_pwr.o ABSOLUTE
    lib\STM32F4xx_StdPeriph_Driver\src\stm32f4xx_rcc.c 0x00000000   Number         0  stm32f4xx_rcc.o ABSOLUTE
    lib\STM32F4xx_StdPeriph_Driver\src\stm32f4xx_rng.c 0x00000000   Number         0  stm32f4xx_rng.o ABSOLUTE
    lib\STM32F4xx_StdPeriph_Driver\src\stm32f4xx_rtc.c 0x00000000   Number         0  stm32f4xx_rtc.o ABSOLUTE
    lib\STM32F4xx_StdPeriph_Driver\src\stm32f4xx_sdio.c 0x00000000   Number         0  stm32f4xx_sdio.o ABSOLUTE
    lib\STM32F4xx_StdPeriph_Driver\src\stm32f4xx_spi.c 0x00000000   Number         0  stm32f4xx_spi.o ABSOLUTE
    lib\STM32F4xx_StdPeriph_Driver\src\stm32f4xx_syscfg.c 0x00000000   Number         0  stm32f4xx_syscfg.o ABSOLUTE
    lib\STM32F4xx_StdPeriph_Driver\src\stm32f4xx_tim.c 0x00000000   Number         0  stm32f4xx_tim.o ABSOLUTE
    lib\STM32F4xx_StdPeriph_Driver\src\stm32f4xx_usart.c 0x00000000   Number         0  stm32f4xx_usart.o ABSOLUTE
    lib\STM32F4xx_StdPeriph_Driver\src\stm32f4xx_wwdg.c 0x00000000   Number         0  stm32f4xx_wwdg.o ABSOLUTE
    lib\\CMSIS\\ST\\STM32F4xx\\Source\\Templates\\system_stm32f4xx.c 0x00000000   Number         0  system_stm32f4xx.o ABSOLUTE
    lib\\STM32F4xx_StdPeriph_Driver\\src\\misc.c 0x00000000   Number         0  misc.o ABSOLUTE
    lib\\STM32F4xx_StdPeriph_Driver\\src\\stm32f4xx_adc.c 0x00000000   Number         0  stm32f4xx_adc.o ABSOLUTE
    lib\\STM32F4xx_StdPeriph_Driver\\src\\stm32f4xx_can.c 0x00000000   Number         0  stm32f4xx_can.o ABSOLUTE
    lib\\STM32F4xx_StdPeriph_Driver\\src\\stm32f4xx_crc.c 0x00000000   Number         0  stm32f4xx_crc.o ABSOLUTE
    lib\\STM32F4xx_StdPeriph_Driver\\src\\stm32f4xx_cryp.c 0x00000000   Number         0  stm32f4xx_cryp.o ABSOLUTE
    lib\\STM32F4xx_StdPeriph_Driver\\src\\stm32f4xx_cryp_aes.c 0x00000000   Number         0  stm32f4xx_cryp_aes.o ABSOLUTE
    lib\\STM32F4xx_StdPeriph_Driver\\src\\stm32f4xx_cryp_des.c 0x00000000   Number         0  stm32f4xx_cryp_des.o ABSOLUTE
    lib\\STM32F4xx_StdPeriph_Driver\\src\\stm32f4xx_cryp_tdes.c 0x00000000   Number         0  stm32f4xx_cryp_tdes.o ABSOLUTE
    lib\\STM32F4xx_StdPeriph_Driver\\src\\stm32f4xx_dac.c 0x00000000   Number         0  stm32f4xx_dac.o ABSOLUTE
    lib\\STM32F4xx_StdPeriph_Driver\\src\\stm32f4xx_dbgmcu.c 0x00000000   Number         0  stm32f4xx_dbgmcu.o ABSOLUTE
    lib\\STM32F4xx_StdPeriph_Driver\\src\\stm32f4xx_dcmi.c 0x00000000   Number         0  stm32f4xx_dcmi.o ABSOLUTE
    lib\\STM32F4xx_StdPeriph_Driver\\src\\stm32f4xx_dma.c 0x00000000   Number         0  stm32f4xx_dma.o ABSOLUTE
    lib\\STM32F4xx_StdPeriph_Driver\\src\\stm32f4xx_exti.c 0x00000000   Number         0  stm32f4xx_exti.o ABSOLUTE
    lib\\STM32F4xx_StdPeriph_Driver\\src\\stm32f4xx_flash.c 0x00000000   Number         0  stm32f4xx_flash.o ABSOLUTE
    lib\\STM32F4xx_StdPeriph_Driver\\src\\stm32f4xx_fsmc.c 0x00000000   Number         0  stm32f4xx_fsmc.o ABSOLUTE
    lib\\STM32F4xx_StdPeriph_Driver\\src\\stm32f4xx_gpio.c 0x00000000   Number         0  stm32f4xx_gpio.o ABSOLUTE
    lib\\STM32F4xx_StdPeriph_Driver\\src\\stm32f4xx_hash.c 0x00000000   Number         0  stm32f4xx_hash.o ABSOLUTE
    lib\\STM32F4xx_StdPeriph_Driver\\src\\stm32f4xx_hash_md5.c 0x00000000   Number         0  stm32f4xx_hash_md5.o ABSOLUTE
    lib\\STM32F4xx_StdPeriph_Driver\\src\\stm32f4xx_hash_sha1.c 0x00000000   Number         0  stm32f4xx_hash_sha1.o ABSOLUTE
    lib\\STM32F4xx_StdPeriph_Driver\\src\\stm32f4xx_i2c.c 0x00000000   Number         0  stm32f4xx_i2c.o ABSOLUTE
    lib\\STM32F4xx_StdPeriph_Driver\\src\\stm32f4xx_iwdg.c 0x00000000   Number         0  stm32f4xx_iwdg.o ABSOLUTE
    lib\\STM32F4xx_StdPeriph_Driver\\src\\stm32f4xx_pwr.c 0x00000000   Number         0  stm32f4xx_pwr.o ABSOLUTE
    lib\\STM32F4xx_StdPeriph_Driver\\src\\stm32f4xx_rcc.c 0x00000000   Number         0  stm32f4xx_rcc.o ABSOLUTE
    lib\\STM32F4xx_StdPeriph_Driver\\src\\stm32f4xx_rng.c 0x00000000   Number         0  stm32f4xx_rng.o ABSOLUTE
    lib\\STM32F4xx_StdPeriph_Driver\\src\\stm32f4xx_rtc.c 0x00000000   Number         0  stm32f4xx_rtc.o ABSOLUTE
    lib\\STM32F4xx_StdPeriph_Driver\\src\\stm32f4xx_sdio.c 0x00000000   Number         0  stm32f4xx_sdio.o ABSOLUTE
    lib\\STM32F4xx_StdPeriph_Driver\\src\\stm32f4xx_spi.c 0x00000000   Number         0  stm32f4xx_spi.o ABSOLUTE
    lib\\STM32F4xx_StdPeriph_Driver\\src\\stm32f4xx_syscfg.c 0x00000000   Number         0  stm32f4xx_syscfg.o ABSOLUTE
    lib\\STM32F4xx_StdPeriph_Driver\\src\\stm32f4xx_tim.c 0x00000000   Number         0  stm32f4xx_tim.o ABSOLUTE
    lib\\STM32F4xx_StdPeriph_Driver\\src\\stm32f4xx_usart.c 0x00000000   Number         0  stm32f4xx_usart.o ABSOLUTE
    lib\\STM32F4xx_StdPeriph_Driver\\src\\stm32f4xx_wwdg.c 0x00000000   Number         0  stm32f4xx_wwdg.o ABSOLUTE
    src\\buzzer.c                            0x00000000   Number         0  buzzer.o ABSOLUTE
    src\\cli.c                               0x00000000   Number         0  cli.o ABSOLUTE
    src\\config.c                            0x00000000   Number         0  config.o ABSOLUTE
    src\\drv_adc.c                           0x00000000   Number         0  drv_adc.o ABSOLUTE
    src\\drv_adxl345.c                       0x00000000   Number         0  drv_adxl345.o ABSOLUTE
    src\\drv_hcsr04.c                        0x00000000   Number         0  drv_hcsr04.o ABSOLUTE
    src\\drv_hmc5883l.c                      0x00000000   Number         0  drv_hmc5883l.o ABSOLUTE
    src\\drv_i2c.c                           0x00000000   Number         0  drv_i2c.o ABSOLUTE
    src\\drv_i2c_soft.c                      0x00000000   Number         0  drv_i2c_soft.o ABSOLUTE
    src\\drv_l3g4200d.c                      0x00000000   Number         0  drv_l3g4200d.o ABSOLUTE
    src\\drv_ledring.c                       0x00000000   Number         0  drv_ledring.o ABSOLUTE
    src\\drv_mma845x.c                       0x00000000   Number         0  drv_mma845x.o ABSOLUTE
    src\\drv_mpu3050.c                       0x00000000   Number         0  drv_mpu3050.o ABSOLUTE
    src\\drv_mpu6000.c                       0x00000000   Number         0  drv_mpu6000.o ABSOLUTE
    src\\drv_ms5611.c                        0x00000000   Number         0  drv_ms5611.o ABSOLUTE
    src\\drv_pwm.c                           0x00000000   Number         0  drv_pwm.o ABSOLUTE
    src\\drv_spi.c                           0x00000000   Number         0  drv_spi.o ABSOLUTE
    src\\drv_system.c                        0x00000000   Number         0  drv_system.o ABSOLUTE
    src\\drv_uart.c                          0x00000000   Number         0  drv_uart.o ABSOLUTE
    src\\gps.c                               0x00000000   Number         0  gps.o ABSOLUTE
    src\\imu.c                               0x00000000   Number         0  imu.o ABSOLUTE
    src\\main.c                              0x00000000   Number         0  main.o ABSOLUTE
    src\\mixer.c                             0x00000000   Number         0  mixer.o ABSOLUTE
    src\\mw.c                                0x00000000   Number         0  mw.o ABSOLUTE
    src\\printf.c                            0x00000000   Number         0  printf.o ABSOLUTE
    src\\sensors.c                           0x00000000   Number         0  sensors.o ABSOLUTE
    src\\serial.c                            0x00000000   Number         0  serial.o ABSOLUTE
    src\\spektrum.c                          0x00000000   Number         0  spektrum.o ABSOLUTE
    src\\telemetry.c                         0x00000000   Number         0  telemetry.o ABSOLUTE
    src\buzzer.c                             0x00000000   Number         0  buzzer.o ABSOLUTE
    src\cli.c                                0x00000000   Number         0  cli.o ABSOLUTE
    src\config.c                             0x00000000   Number         0  config.o ABSOLUTE
    src\drv_adc.c                            0x00000000   Number         0  drv_adc.o ABSOLUTE
    src\drv_adc_fy90q.c                      0x00000000   Number         0  drv_adc_fy90q.o ABSOLUTE
    src\drv_adxl345.c                        0x00000000   Number         0  drv_adxl345.o ABSOLUTE
    src\drv_hcsr04.c                         0x00000000   Number         0  drv_hcsr04.o ABSOLUTE
    src\drv_hmc5883l.c                       0x00000000   Number         0  drv_hmc5883l.o ABSOLUTE
    src\drv_i2c.c                            0x00000000   Number         0  drv_i2c.o ABSOLUTE
    src\drv_i2c_soft.c                       0x00000000   Number         0  drv_i2c_soft.o ABSOLUTE
    src\drv_l3g4200d.c                       0x00000000   Number         0  drv_l3g4200d.o ABSOLUTE
    src\drv_ledring.c                        0x00000000   Number         0  drv_ledring.o ABSOLUTE
    src\drv_mma845x.c                        0x00000000   Number         0  drv_mma845x.o ABSOLUTE
    src\drv_mpu3050.c                        0x00000000   Number         0  drv_mpu3050.o ABSOLUTE
    src\drv_mpu6000.c                        0x00000000   Number         0  drv_mpu6000.o ABSOLUTE
    src\drv_ms5611.c                         0x00000000   Number         0  drv_ms5611.o ABSOLUTE
    src\drv_pwm.c                            0x00000000   Number         0  drv_pwm.o ABSOLUTE
    src\drv_pwm_fy90q.c                      0x00000000   Number         0  drv_pwm_fy90q.o ABSOLUTE
    src\drv_spi.c                            0x00000000   Number         0  drv_spi.o ABSOLUTE
    src\drv_system.c                         0x00000000   Number         0  drv_system.o ABSOLUTE
    src\drv_uart.c                           0x00000000   Number         0  drv_uart.o ABSOLUTE
    src\gps.c                                0x00000000   Number         0  gps.o ABSOLUTE
    src\imu.c                                0x00000000   Number         0  imu.o ABSOLUTE
    src\main.c                               0x00000000   Number         0  main.o ABSOLUTE
    src\mixer.c                              0x00000000   Number         0  mixer.o ABSOLUTE
    src\mw.c                                 0x00000000   Number         0  mw.o ABSOLUTE
    src\printf.c                             0x00000000   Number         0  printf.o ABSOLUTE
    src\sensors.c                            0x00000000   Number         0  sensors.o ABSOLUTE
    src\serial.c                             0x00000000   Number         0  serial.o ABSOLUTE
    src\spektrum.c                           0x00000000   Number         0  spektrum.o ABSOLUTE
    src\telemetry.c                          0x00000000   Number         0  telemetry.o ABSOLUTE
    startup_stm32f4xx.s                      0x00000000   Number         0  startup_stm32f4xx.o ABSOLUTE
    RESET                                    0x08000000   Section      392  startup_stm32f4xx.o(RESET)
    .ARM.Collect$$$$00000000                 0x08000188   Section        0  entry.o(.ARM.Collect$$$$00000000)
    .ARM.Collect$$$$00000001                 0x08000188   Section        4  entry2.o(.ARM.Collect$$$$00000001)
    .ARM.Collect$$$$00000004                 0x0800018c   Section        4  entry5.o(.ARM.Collect$$$$00000004)
    .ARM.Collect$$$$00000008                 0x08000190   Section        0  entry7b.o(.ARM.Collect$$$$00000008)
    .ARM.Collect$$$$00000009                 0x08000190   Section        8  entry8.o(.ARM.Collect$$$$00000009)
    .ARM.Collect$$$$00002712                 0x08000198   Section        4  entry2.o(.ARM.Collect$$$$00002712)
    __lit__00000000                          0x08000198   Data           4  entry2.o(.ARM.Collect$$$$00002712)
    .text                                    0x0800019c   Section       36  startup_stm32f4xx.o(.text)
    $v0                                      0x0800019c   Number         0  startup_stm32f4xx.o(.text)
    .text                                    0x080001c0   Section        0  buzzer.o(.text)
    beep                                     0x080001c1   Thumb Code    92  buzzer.o(.text)
    beep_code                                0x0800021d   Thumb Code   136  buzzer.o(.text)
    .text                                    0x080003dc   Section        0  cli.o(.text)
    i2a                                      0x080003dd   Thumb Code    36  cli.o(.text)
    _atof                                    0x08000429   Thumb Code   380  cli.o(.text)
    ftoa                                     0x080005a5   Thumb Code   204  cli.o(.text)
    cliCompare                               0x08000671   Thumb Code    26  cli.o(.text)
    cliAux                                   0x0800068b   Thumb Code    84  cli.o(.text)
    cliCMix                                  0x080006df   Thumb Code   748  cli.o(.text)
    cliDefaults                              0x080009cb   Thumb Code    36  cli.o(.text)
    cliPrintVar                              0x080009ef   Thumb Code   148  cli.o(.text)
    cliDump                                  0x08000a83   Thumb Code   850  cli.o(.text)
    cliSave                                  0x08000dd5   Thumb Code    38  cli.o(.text)
    cliExit                                  0x08000dfb   Thumb Code    32  cli.o(.text)
    cliFeature                               0x08000e1b   Thumb Code   200  cli.o(.text)
    cliHelp                                  0x08000ee3   Thumb Code    42  cli.o(.text)
    cliMap                                   0x08000f0d   Thumb Code   116  cli.o(.text)
    cliMixer                                 0x08000f81   Thumb Code   132  cli.o(.text)
    cliProfile                               0x08001005   Thumb Code    58  cli.o(.text)
    cliSet                                   0x0800103f   Thumb Code   358  cli.o(.text)
    cliStatus                                0x080011a5   Thumb Code   656  cli.o(.text)
    cliVersion                               0x08001435   Thumb Code     6  cli.o(.text)
    cliPrompt                                0x080015e5   Thumb Code     6  cli.o(.text)
    .text                                    0x08001770   Section        0  config.o(.text)
    validEEPROM                              0x0800179d   Thumb Code    60  config.o(.text)
    resetConf                                0x080019c7   Thumb Code   688  config.o(.text)
    .text                                    0x08001d04   Section        0  gps.o(.text)
    gpsPrint                                 0x08001d05   Thumb Code    54  gps.o(.text)
    get_D                                    0x08001d55   Thumb Code   108  gps.o(.text)
    get_I                                    0x08001dc1   Thumb Code    84  gps.o(.text)
    GPS_update_crosstrack                    0x08001e15   Thumb Code   140  gps.o(.text)
    GPS_calc_nav_rate                        0x08001ea1   Thumb Code   258  gps.o(.text)
    GPS_calc_poshold                         0x08001fa3   Thumb Code   194  gps.o(.text)
    GPS_calc_location_error                  0x08002065   Thumb Code    44  gps.o(.text)
    GPS_distance_cm_bearing                  0x08002091   Thumb Code   186  gps.o(.text)
    GPS_calc_velocity                        0x0800214b   Thumb Code   144  gps.o(.text)
    GPS_calc_longitude_scaling               0x080021db   Thumb Code    46  gps.o(.text)
    UBLOX_parse_gps                          0x08002239   Thumb Code   258  gps.o(.text)
    GPS_UBLOX_newFrame                       0x0800233b   Thumb Code   216  gps.o(.text)
    grab_fields                              0x08002413   Thumb Code    56  gps.o(.text)
    GPS_NMEA_newFrame                        0x080024e9   Thumb Code   490  gps.o(.text)
    GPS_NewData                              0x080026d3   Thumb Code   544  gps.o(.text)
    GPS_set_pids                             0x080028f3   Thumb Code   188  gps.o(.text)
    get_P                                    0x08002bf1   Thumb Code    26  gps.o(.text)
    GPS_calc_desired_speed                   0x08002c0b   Thumb Code    76  gps.o(.text)
    hex_c                                    0x08002c57   Thumb Code    18  gps.o(.text)
    reset_PID                                0x08002c69   Thumb Code    18  gps.o(.text)
    .text                                    0x08002cec   Section        0  imu.o(.text)
    getEstimatedAttitude                     0x08002e0f   Thumb Code   672  imu.o(.text)
    _atan2f                                  0x0800345d   Thumb Code    26  imu.o(.text)
    .text                                    0x080034b0   Section        0  main.o(.text)
    .text                                    0x080036bc   Section        0  mixer.o(.text)
    .text                                    0x08003c8c   Section        0  mw.o(.text)
    mwArm                                    0x0800415f   Thumb Code    44  mw.o(.text)
    pidMultiWii                              0x0800418b   Thumb Code   516  mw.o(.text)
    pidRewrite                               0x0800438f   Thumb Code   332  mw.o(.text)
    mwDisarm                                 0x08004e21   Thumb Code    14  mw.o(.text)
    .text                                    0x08004e34   Section        0  sensors.o(.text)
    alignSensors                             0x08004fe7   Thumb Code    70  sensors.o(.text)
    ACC_Common                               0x0800502d   Thumb Code   432  sensors.o(.text)
    GYRO_Common                              0x080052df   Thumb Code   412  sensors.o(.text)
    .text                                    0x08005674   Section        0  serial.o(.text)
    evaluateCommand                          0x080058c1   Thumb Code  1758  serial.o(.text)
    .text                                    0x080060b0   Section        0  spektrum.o(.text)
    spektrumDataReceive                      0x080060b1   Thumb Code    58  spektrum.o(.text)
    .text                                    0x080061a4   Section        0  telemetry.o(.text)
    serializeFrsky                           0x080061a5   Thumb Code    38  telemetry.o(.text)
    sendGPS                                  0x080061cb   Thumb Code   174  telemetry.o(.text)
    sendDataHead                             0x08006431   Thumb Code    20  telemetry.o(.text)
    serialize16                              0x08006445   Thumb Code    20  telemetry.o(.text)
    sendVoltage                              0x08006459   Thumb Code    82  telemetry.o(.text)
    .text                                    0x080064dc   Section        0  drv_adc.o(.text)
    .text                                    0x080065f4   Section        0  drv_adxl345.o(.text)
    adxl345Align                             0x080065f5   Thumb Code     2  drv_adxl345.o(.text)
    adxl345Read                              0x080065f7   Thumb Code   188  drv_adxl345.o(.text)
    adxl345Init                              0x080066b3   Thumb Code    86  drv_adxl345.o(.text)
    .text                                    0x08006758   Section        0  drv_hcsr04.o(.text)
    .text                                    0x08006864   Section        0  drv_hmc5883l.o(.text)
    .text                                    0x08006b0c   Section        0  drv_i2c.o(.text)
    i2c_er_handler                           0x08006bc3   Thumb Code   114  drv_i2c.o(.text)
    i2c_ev_handler                           0x08006c37   Thumb Code   544  drv_i2c.o(.text)
    i2cUnstick                               0x08006f57   Thumb Code   192  drv_i2c.o(.text)
    .text                                    0x08007020   Section        0  drv_l3g4200d.o(.text)
    l3g4200dAlign                            0x08007021   Thumb Code    14  drv_l3g4200d.o(.text)
    l3g4200dRead                             0x0800702f   Thumb Code    72  drv_l3g4200d.o(.text)
    l3g4200dInit                             0x08007077   Thumb Code    52  drv_l3g4200d.o(.text)
    .text                                    0x08007118   Section        0  drv_ledring.o(.text)
    .text                                    0x08007220   Section        0  drv_mma845x.o(.text)
    mma8452Align                             0x08007221   Thumb Code    14  drv_mma845x.o(.text)
    mma8452Read                              0x0800722f   Thumb Code    78  drv_mma845x.o(.text)
    mma8452Init                              0x0800727d   Thumb Code   114  drv_mma845x.o(.text)
    .text                                    0x08007344   Section        0  drv_mpu3050.o(.text)
    mpu3050ReadTemp                          0x08007345   Thumb Code    44  drv_mpu3050.o(.text)
    mpu3050Align                             0x08007371   Thumb Code     8  drv_mpu3050.o(.text)
    mpu3050Read                              0x08007379   Thumb Code    72  drv_mpu3050.o(.text)
    mpu3050Init                              0x080073c1   Thumb Code    76  drv_mpu3050.o(.text)
    .text                                    0x08007490   Section        0  drv_mpu6000.o(.text)
    mpu6000GyroAlign                         0x08007491   Thumb Code    18  drv_mpu6000.o(.text)
    mpu6000GyroRead                          0x080074a3   Thumb Code    98  drv_mpu6000.o(.text)
    mpu6000GyroInit                          0x08007505   Thumb Code   126  drv_mpu6000.o(.text)
    mpu6000AccAlign                          0x08007583   Thumb Code    14  drv_mpu6000.o(.text)
    mpu6000AccRead                           0x08007591   Thumb Code    98  drv_mpu6000.o(.text)
    mpu6000AccInit                           0x080075f3   Thumb Code    10  drv_mpu6000.o(.text)
    SPI1_Write                               0x080076a1   Thumb Code    32  drv_mpu6000.o(.text)
    .text                                    0x080076ec   Section        0  drv_ms5611.o(.text)
    ms5611_calculate                         0x080076ed   Thumb Code   262  drv_ms5611.o(.text)
    ms5611_get_up                            0x080077f3   Thumb Code    12  drv_ms5611.o(.text)
    ms5611_start_up                          0x080077ff   Thumb Code    16  drv_ms5611.o(.text)
    ms5611_get_ut                            0x0800780f   Thumb Code    12  drv_ms5611.o(.text)
    ms5611_start_ut                          0x0800781b   Thumb Code    16  drv_ms5611.o(.text)
    ms5611_read_adc                          0x080078b5   Thumb Code    36  drv_ms5611.o(.text)
    ms5611_crc                               0x080078d9   Thumb Code   106  drv_ms5611.o(.text)
    .text                                    0x08007964   Section        0  drv_pwm.o(.text)
    pwmTimeBase                              0x08007965   Thumb Code    70  drv_pwm.o(.text)
    pwmGPIOConfig                            0x080079ab   Thumb Code   258  drv_pwm.o(.text)
    pwmOutConfig                             0x08007aad   Thumb Code   112  drv_pwm.o(.text)
    pwmInConfig                              0x08007b1d   Thumb Code   148  drv_pwm.o(.text)
    ppmCallback                              0x08007ef1   Thumb Code   108  drv_pwm.o(.text)
    pwmCallback                              0x08007f5d   Thumb Code    80  drv_pwm.o(.text)
    pwmOCConfig                              0x080080ad   Thumb Code   136  drv_pwm.o(.text)
    pwmICConfig                              0x08008135   Thumb Code    48  drv_pwm.o(.text)
    .text                                    0x0800818c   Section        0  drv_spi.o(.text)
    .text                                    0x080083a8   Section        0  drv_system.o(.text)
    .text                                    0x08008584   Section        0  drv_uart.o(.text)
    uartTxDMA                                0x08008585   Thumb Code    66  drv_uart.o(.text)
    uart2Open                                0x0800880d   Thumb Code    70  drv_uart.o(.text)
    uart3Open                                0x080089b9   Thumb Code    70  drv_uart.o(.text)
    .text                                    0x08008b4c   Section        0  system_stm32f4xx.o(.text)
    SetSysClock                              0x08008c07   Thumb Code   140  system_stm32f4xx.o(.text)
    .text                                    0x08008cb8   Section        0  misc.o(.text)
    .text                                    0x08008d68   Section        0  stm32f4xx_adc.o(.text)
    .text                                    0x080090bc   Section        0  stm32f4xx_dma.o(.text)
    .text                                    0x080093dc   Section        0  stm32f4xx_exti.o(.text)
    .text                                    0x080094c8   Section        0  stm32f4xx_flash.o(.text)
    .text                                    0x08009858   Section        0  stm32f4xx_gpio.o(.text)
    .text                                    0x08009a40   Section        0  stm32f4xx_i2c.o(.text)
    .text                                    0x08009d64   Section        0  stm32f4xx_rcc.o(.text)
    .text                                    0x0800a13c   Section        0  stm32f4xx_spi.o(.text)
    .text                                    0x0800a428   Section        0  stm32f4xx_syscfg.o(.text)
    .text                                    0x0800a494   Section        0  stm32f4xx_tim.o(.text)
    TI2_Config                               0x0800aa79   Thumb Code    46  stm32f4xx_tim.o(.text)
    TI1_Config                               0x0800adbd   Thumb Code    44  stm32f4xx_tim.o(.text)
    .text                                    0x0800ade8   Section        0  stm32f4xx_usart.o(.text)
    .text                                    0x0800b12c   Section        0  ctype_o.o(.text)
    .text                                    0x0800b134   Section        0  toupper.o(.text)
    .text                                    0x0800b140   Section        0  bsearch.o(.text)
    .text                                    0x0800b186   Section        0  memcpya.o(.text)
    .text                                    0x0800b1aa   Section        0  memseta.o(.text)
    .text                                    0x0800b1d0   Section        0  strcat.o(.text)
    .text                                    0x0800b1ec   Section        0  strstr.o(.text)
    .text                                    0x0800b218   Section        0  strncpy.o(.text)
    .text                                    0x0800b230   Section        0  strchr.o(.text)
    .text                                    0x0800b242   Section        0  strlen.o(.text)
    .text                                    0x0800b252   Section        0  strncasecmp.o(.text)
    .text                                    0x0800b284   Section        0  atoi.o(.text)
    .text                                    0x0800b29e   Section        0  dadd.o(.text)
    .text                                    0x0800b3ea   Section        0  dmul.o(.text)
    .text                                    0x0800b4ca   Section        0  ddiv.o(.text)
    .text                                    0x0800b5a8   Section        0  dflti.o(.text)
    .text                                    0x0800b5ca   Section        0  d2f.o(.text)
    .text                                    0x0800b602   Section        0  uidiv.o(.text)
    .text                                    0x0800b62e   Section        0  llshl.o(.text)
    .text                                    0x0800b64c   Section        0  llsshr.o(.text)
    .text                                    0x0800b670   Section        0  tolower.o(.text)
    .text                                    0x0800b67c   Section        0  strtol.o(.text)
    .text                                    0x0800b6ec   Section        0  iusefp.o(.text)
    .text                                    0x0800b6ec   Section        0  fepilogue.o(.text)
    .text                                    0x0800b758   Section        0  depilogue.o(.text)
    .text                                    0x0800b818   Section       36  init.o(.text)
    .text                                    0x0800b83c   Section        0  llushr.o(.text)
    .text                                    0x0800b85c   Section        0  _strtoul.o(.text)
    .text                                    0x0800b8fa   Section        0  _chval.o(.text)
    .text                                    0x0800b916   Section        0  __dczerorl2.o(.text)
    i.__0printf$3                            0x0800b974   Section        0  printf3.o(i.__0printf$3)
    i.__ARM_fpclassifyf                      0x0800b994   Section        0  fpclassifyf.o(i.__ARM_fpclassifyf)
    i.__aeabi_errno_addr                     0x0800b9bc   Section        0  errno.o(i.__aeabi_errno_addr)
    i.__hardfp_atan2f                        0x0800b9c4   Section        0  atan2f.o(i.__hardfp_atan2f)
    i.__hardfp_cosf                          0x0800bc0c   Section        0  cosf.o(i.__hardfp_cosf)
    i.__hardfp_fabs                          0x0800bd6c   Section        0  fabs.o(i.__hardfp_fabs)
    i.__hardfp_logf                          0x0800bd80   Section        0  logf.o(i.__hardfp_logf)
    i.__hardfp_sinf                          0x0800bef0   Section        0  sinf.o(i.__hardfp_sinf)
    i.__hardfp_sqrtf                         0x0800c068   Section        0  sqrtf.o(i.__hardfp_sqrtf)
    i.__mathlib_flt_underflow                0x0800c0a4   Section        0  funder.o(i.__mathlib_flt_underflow)
    i.__mathlib_rredf2                       0x0800c0b4   Section        0  rredf.o(i.__mathlib_rredf2)
    i.__scatterload_copy                     0x0800c1f4   Section       14  handlers.o(i.__scatterload_copy)
    i.__scatterload_null                     0x0800c202   Section        2  handlers.o(i.__scatterload_null)
    i.__scatterload_zeroinit                 0x0800c204   Section       14  handlers.o(i.__scatterload_zeroinit)
    i.__set_errno                            0x0800c214   Section        0  errno.o(i.__set_errno)
    i._printf_core                           0x0800c220   Section        0  printf3.o(i._printf_core)
    _printf_core                             0x0800c221   Thumb Code   432  printf3.o(i._printf_core)
    .constdata                               0x0800c3d4   Section     2468  cli.o(.constdata)
    .constdata                               0x0800cd78   Section       21  config.o(.constdata)
    .constdata                               0x0800cd90   Section      192  gps.o(.constdata)
    gpsInitStrings                           0x0800cda4   Data          32  gps.o(.constdata)
    ubloxInit                                0x0800cdc4   Data         140  gps.o(.constdata)
    .constdata                               0x0800ce50   Section       48  mixer.o(.constdata)
    mixerTri                                 0x0800ce50   Data          48  mixer.o(.constdata)
    .constdata                               0x0800ce80   Section       64  mixer.o(.constdata)
    mixerQuadP                               0x0800ce80   Data          64  mixer.o(.constdata)
    .constdata                               0x0800cec0   Section       64  mixer.o(.constdata)
    mixerQuadX                               0x0800cec0   Data          64  mixer.o(.constdata)
    .constdata                               0x0800cf00   Section       32  mixer.o(.constdata)
    mixerBi                                  0x0800cf00   Data          32  mixer.o(.constdata)
    .constdata                               0x0800cf20   Section       96  mixer.o(.constdata)
    mixerY6                                  0x0800cf20   Data          96  mixer.o(.constdata)
    .constdata                               0x0800cf80   Section       96  mixer.o(.constdata)
    mixerHex6P                               0x0800cf80   Data          96  mixer.o(.constdata)
    .constdata                               0x0800cfe0   Section       64  mixer.o(.constdata)
    mixerY4                                  0x0800cfe0   Data          64  mixer.o(.constdata)
    .constdata                               0x0800d020   Section       96  mixer.o(.constdata)
    mixerHex6X                               0x0800d020   Data          96  mixer.o(.constdata)
    .constdata                               0x0800d080   Section      128  mixer.o(.constdata)
    mixerOctoX8                              0x0800d080   Data         128  mixer.o(.constdata)
    .constdata                               0x0800d100   Section      128  mixer.o(.constdata)
    mixerOctoFlatP                           0x0800d100   Data         128  mixer.o(.constdata)
    .constdata                               0x0800d180   Section      128  mixer.o(.constdata)
    mixerOctoFlatX                           0x0800d180   Data         128  mixer.o(.constdata)
    .constdata                               0x0800d200   Section       64  mixer.o(.constdata)
    mixerVtail4                              0x0800d200   Data          64  mixer.o(.constdata)
    .constdata                               0x0800d240   Section      152  mixer.o(.constdata)
    .constdata                               0x0800d2d8   Section       48  serial.o(.constdata)
    pidnames                                 0x0800d2d8   Data          48  serial.o(.constdata)
    .constdata                               0x0800d308   Section       28  drv_pwm.o(.constdata)
    multiPPM                                 0x0800d308   Data          28  drv_pwm.o(.constdata)
    .constdata                               0x0800d324   Section       42  drv_pwm.o(.constdata)
    multiPWM                                 0x0800d324   Data          42  drv_pwm.o(.constdata)
    .constdata                               0x0800d34e   Section       28  drv_pwm.o(.constdata)
    airPPM                                   0x0800d34e   Data          28  drv_pwm.o(.constdata)
    .constdata                               0x0800d36a   Section       42  drv_pwm.o(.constdata)
    airPWM                                   0x0800d36a   Data          42  drv_pwm.o(.constdata)
    .constdata                               0x0800d394   Section       64  logf.o(.constdata)
    logahi                                   0x0800d394   Data          32  logf.o(.constdata)
    logalo                                   0x0800d3b4   Data          32  logf.o(.constdata)
    .constdata                               0x0800d3d4   Section      129  ctype_o.o(.constdata)
    .constdata                               0x0800d458   Section        4  ctype_o.o(.constdata)
    table                                    0x0800d458   Data           4  ctype_o.o(.constdata)
    .constdata                               0x0800d45c   Section       32  rredf.o(.constdata)
    twooverpi                                0x0800d45c   Data          32  rredf.o(.constdata)
    .conststring                             0x0800d47c   Section     1996  cli.o(.conststring)
    .conststring                             0x0800dc48   Section      218  gps.o(.conststring)
    .conststring                             0x0800dd22   Section      164  serial.o(.conststring)
    .data                                    0x20000000   Section       12  buzzer.o(.data)
    buzzerIsOn                               0x20000000   Data           1  buzzer.o(.data)
    beepDone                                 0x20000001   Data           1  buzzer.o(.data)
    beeperOnBox                              0x20000002   Data           1  buzzer.o(.data)
    warn_noGPSfix                            0x20000003   Data           1  buzzer.o(.data)
    warn_failsafe                            0x20000004   Data           1  buzzer.o(.data)
    warn_runtime                             0x20000005   Data           1  buzzer.o(.data)
    icnt                                     0x20000006   Data           1  buzzer.o(.data)
    buzzerLastToggleTime                     0x20000008   Data           4  buzzer.o(.data)
    .data                                    0x2000000c   Section        4  cli.o(.data)
    bufferIndex                              0x2000000c   Data           4  cli.o(.data)
    .data                                    0x20000010   Section        8  config.o(.data)
    EEPROM_CONF_VERSION                      0x20000010   Data           1  config.o(.data)
    enabledSensors                           0x20000014   Data           4  config.o(.data)
    .data                                    0x20000018   Section      128  gps.o(.data)
    GPS_filter_index                         0x20000018   Data           1  gps.o(.data)
    init                                     0x20000019   Data           1  gps.o(.data)
    param                                    0x2000001a   Data           1  gps.o(.data)
    offset                                   0x2000001b   Data           1  gps.o(.data)
    parity                                   0x2000001c   Data           1  gps.o(.data)
    checksum_param                           0x2000001d   Data           1  gps.o(.data)
    frame                                    0x2000001e   Data           1  gps.o(.data)
    _ck_a                                    0x2000001f   Data           1  gps.o(.data)
    _ck_b                                    0x20000020   Data           1  gps.o(.data)
    _step                                    0x20000021   Data           1  gps.o(.data)
    _msg_id                                  0x20000022   Data           1  gps.o(.data)
    next_fix                                 0x20000023   Data           1  gps.o(.data)
    _class                                   0x20000024   Data           1  gps.o(.data)
    _new_position                            0x20000025   Data           1  gps.o(.data)
    _new_speed                               0x20000026   Data           1  gps.o(.data)
    crosstrack_error                         0x20000028   Data           2  gps.o(.data)
    waypoint_speed_gov                       0x2000002a   Data           2  gps.o(.data)
    nav_takeoff_bearing                      0x2000002c   Data           2  gps.o(.data)
    _payload_length                          0x2000002e   Data           2  gps.o(.data)
    _payload_counter                         0x20000030   Data           2  gps.o(.data)
    actual_speed                             0x20000032   Data           4  gps.o(.data)
    nav_loopTimer                            0x20000038   Data           4  gps.o(.data)
    speed_old                                0x2000003c   Data           4  gps.o(.data)
    dTnav                                    0x20000040   Data           4  gps.o(.data)
    GPS_scaleLonDown                         0x20000044   Data           4  gps.o(.data)
    rate_error                               0x20000048   Data           4  gps.o(.data)
    target_bearing                           0x2000004c   Data           4  gps.o(.data)
    original_target_bearing                  0x20000050   Data           4  gps.o(.data)
    wp_distance                              0x20000054   Data           4  gps.o(.data)
    fraction3                                0x20000058   Data           4  gps.o(.data)
    nav_bearing                              0x2000005c   Data           4  gps.o(.data)
    last                                     0x20000060   Data           8  gps.o(.data)
    error                                    0x20000068   Data           8  gps.o(.data)
    GPS_WP                                   0x20000070   Data           8  gps.o(.data)
    GPS_filter_sum                           0x20000078   Data           8  gps.o(.data)
    GPS_read                                 0x20000080   Data           8  gps.o(.data)
    GPS_filtered                             0x20000088   Data           8  gps.o(.data)
    GPS_degree                               0x20000090   Data           8  gps.o(.data)
    .data                                    0x20000098   Section      118  imu.o(.data)
    gyroYawSmooth                            0x200000a0   Data           2  imu.o(.data)
    accZoffset                               0x200000a2   Data           2  imu.o(.data)
    Smoothing                                0x200000a4   Data           3  imu.o(.data)
    timeInterleave                           0x200000bc   Data           4  imu.o(.data)
    previousT                                0x200000c0   Data           4  imu.o(.data)
    baroGroundPressure                       0x200000c4   Data           4  imu.o(.data)
    previousT                                0x200000c8   Data           4  imu.o(.data)
    vel                                      0x200000cc   Data           4  imu.o(.data)
    lastBaroAlt                              0x200000d0   Data           4  imu.o(.data)
    invG                                     0x200000e0   Data           4  imu.o(.data)
    gyroADCprevious                          0x200000ea   Data           6  imu.o(.data)
    gyroSmooth                               0x200000f0   Data           6  imu.o(.data)
    .data                                    0x20000110   Section        4  imu.o(.data)
    .data                                    0x20000114   Section        6  imu.o(.data)
    .data                                    0x2000011a   Section        2  imu.o(.data)
    .data                                    0x2000011c   Section       18  mixer.o(.data)
    numberMotor                              0x2000011c   Data           1  mixer.o(.data)
    .data                                    0x20000130   Section      168  mw.o(.data)
    buzzerFreq                               0x20000132   Data           1  mw.o(.data)
    vbatTimer                                0x20000133   Data           1  mw.o(.data)
    ind                                      0x20000134   Data           1  mw.o(.data)
    rc4ValuesIndex                           0x20000135   Data           1  mw.o(.data)
    rcDelayCommand                           0x20000136   Data           1  mw.o(.data)
    rcSticks                                 0x20000137   Data           1  mw.o(.data)
    GPSNavReset                              0x20000138   Data           1  mw.o(.data)
    isAltHoldChanged                         0x20000139   Data           1  mw.o(.data)
    initialThrottleHold                      0x2000014a   Data           2  mw.o(.data)
    AltHoldCorr                              0x2000014c   Data           2  mw.o(.data)
    calibratedAccTime                        0x20000174   Data           4  mw.o(.data)
    LEDTime                                  0x20000178   Data           4  mw.o(.data)
    GPSLEDTime                               0x2000017c   Data           4  mw.o(.data)
    rcTime                                   0x20000180   Data           4  mw.o(.data)
    loopTime                                 0x20000184   Data           4  mw.o(.data)
    taskOrder                                0x20000188   Data           4  mw.o(.data)
    lastGyro                                 0x20000194   Data           6  mw.o(.data)
    errorAngleI                              0x200001a0   Data           8  mw.o(.data)
    .data                                    0x200001d8   Section        2  mw.o(.data)
    .data                                    0x200001da   Section        1  mw.o(.data)
    .data                                    0x200001dc   Section        2  mw.o(.data)
    .data                                    0x200001de   Section        1  mw.o(.data)
    .data                                    0x200001df   Section        1  mw.o(.data)
    .data                                    0x200001e0   Section        8  mw.o(.data)
    .data                                    0x200001e8   Section        2  mw.o(.data)
    .data                                    0x200001ea   Section        2  mw.o(.data)
    .data                                    0x200001ec   Section        2  mw.o(.data)
    .data                                    0x200001ee   Section        2  mw.o(.data)
    .data                                    0x200001f0   Section        2  mw.o(.data)
    .data                                    0x200001f2   Section        1  mw.o(.data)
    .data                                    0x200001f4   Section       68  sensors.o(.data)
    magInit                                  0x200001f5   Data           1  sensors.o(.data)
    angleTrim_saved                          0x200001fc   Data           4  sensors.o(.data)
    baroHistIdx                              0x20000200   Data           4  sensors.o(.data)
    baroDeadline                             0x20000204   Data           4  sensors.o(.data)
    state                                    0x20000208   Data           4  sensors.o(.data)
    t                                        0x2000020c   Data           4  sensors.o(.data)
    tCal                                     0x20000210   Data           4  sensors.o(.data)
    accZero_saved                            0x20000214   Data           6  sensors.o(.data)
    previousGyroADC                          0x2000021a   Data           6  sensors.o(.data)
    magZeroTempMin                           0x20000220   Data           6  sensors.o(.data)
    magZeroTempMax                           0x20000226   Data           6  sensors.o(.data)
    magCal                                   0x2000022c   Data          12  sensors.o(.data)
    .data                                    0x20000238   Section        2  sensors.o(.data)
    .data                                    0x2000023a   Section        2  sensors.o(.data)
    .data                                    0x2000023c   Section        2  sensors.o(.data)
    .data                                    0x20000240   Section      264  serial.o(.data)
    numberBoxItems                           0x20000240   Data           1  serial.o(.data)
    guiConnected                             0x20000241   Data           1  serial.o(.data)
    t                                        0x20000243   Data           1  serial.o(.data)
    t                                        0x20000244   Data           1  serial.o(.data)
    offset                                   0x20000245   Data           1  serial.o(.data)
    dataSize                                 0x20000246   Data           1  serial.o(.data)
    c_state                                  0x20000247   Data           1  serial.o(.data)
    checksum                                 0x20000248   Data           1  serial.o(.data)
    indRX                                    0x20000249   Data           1  serial.o(.data)
    cmdMSP                                   0x2000024a   Data           1  serial.o(.data)
    .data                                    0x20000348   Section       16  spektrum.o(.data)
    rcFrameComplete                          0x20000348   Data           1  spektrum.o(.data)
    spekDataIncoming                         0x20000349   Data           1  spektrum.o(.data)
    spekFramePosition                        0x2000034a   Data           1  spektrum.o(.data)
    spek_chan_shift                          0x2000034b   Data           1  spektrum.o(.data)
    spek_chan_mask                           0x2000034c   Data           1  spektrum.o(.data)
    spekTimeLast                             0x20000350   Data           4  spektrum.o(.data)
    spekTimeInterval                         0x20000354   Data           4  spektrum.o(.data)
    .data                                    0x20000358   Section        8  telemetry.o(.data)
    telemetryEnabled                         0x20000358   Data           1  telemetry.o(.data)
    cycleNum                                 0x20000359   Data           1  telemetry.o(.data)
    currentCell                              0x2000035a   Data           2  telemetry.o(.data)
    lastCycleTime                            0x2000035c   Data           4  telemetry.o(.data)
    .data                                    0x20000360   Section        4  drv_adc.o(.data)
    adcValues                                0x20000360   Data           4  drv_adc.o(.data)
    .data                                    0x20000364   Section        2  drv_adxl345.o(.data)
    useFifo                                  0x20000364   Data           1  drv_adxl345.o(.data)
    .data                                    0x20000368   Section       24  drv_hcsr04.o(.data)
    exti_pin_source                          0x20000368   Data           1  drv_hcsr04.o(.data)
    exti_irqn                                0x20000369   Data           1  drv_hcsr04.o(.data)
    trigger_pin                              0x2000036a   Data           2  drv_hcsr04.o(.data)
    echo_pin                                 0x2000036c   Data           2  drv_hcsr04.o(.data)
    timing_start                             0x20000370   Data           4  drv_hcsr04.o(.data)
    exti_line                                0x20000374   Data           4  drv_hcsr04.o(.data)
    last_measurement                         0x20000378   Data           4  drv_hcsr04.o(.data)
    distance_ptr                             0x2000037c   Data           4  drv_hcsr04.o(.data)
    .data                                    0x20000380   Section        3  drv_hmc5883l.o(.data)
    sensor_align                             0x20000380   Data           3  drv_hmc5883l.o(.data)
    .data                                    0x20000384   Section       24  drv_i2c.o(.data)
    error                                    0x20000384   Data           1  drv_i2c.o(.data)
    subaddress_sent                          0x20000385   Data           1  drv_i2c.o(.data)
    final_stop                               0x20000386   Data           1  drv_i2c.o(.data)
    index                                    0x20000387   Data           1  drv_i2c.o(.data)
    busy                                     0x20000388   Data           1  drv_i2c.o(.data)
    addr                                     0x20000389   Data           1  drv_i2c.o(.data)
    reg                                      0x2000038a   Data           1  drv_i2c.o(.data)
    bytes                                    0x2000038b   Data           1  drv_i2c.o(.data)
    writing                                  0x2000038c   Data           1  drv_i2c.o(.data)
    reading                                  0x2000038d   Data           1  drv_i2c.o(.data)
    i2cErrorCount                            0x2000038e   Data           2  drv_i2c.o(.data)
    I2Cx                                     0x20000390   Data           4  drv_i2c.o(.data)
    write_p                                  0x20000394   Data           4  drv_i2c.o(.data)
    read_p                                   0x20000398   Data           4  drv_i2c.o(.data)
    .data                                    0x2000039c   Section        1  drv_l3g4200d.o(.data)
    mpuLowPassFilter                         0x2000039c   Data           1  drv_l3g4200d.o(.data)
    .data                                    0x2000039d   Section        1  drv_ledring.o(.data)
    state                                    0x2000039d   Data           1  drv_ledring.o(.data)
    .data                                    0x2000039e   Section        1  drv_mma845x.o(.data)
    device_id                                0x2000039e   Data           1  drv_mma845x.o(.data)
    .data                                    0x2000039f   Section        1  drv_mpu3050.o(.data)
    mpuLowPassFilter                         0x2000039f   Data           1  drv_mpu3050.o(.data)
    .data                                    0x200003a0   Section        2  drv_mpu6000.o(.data)
    mpuLowPassFilter                         0x200003a0   Data           1  drv_mpu6000.o(.data)
    mpuAccelHalf                             0x200003a1   Data           1  drv_mpu6000.o(.data)
    .data                                    0x200003a4   Section       12  drv_ms5611.o(.data)
    ms5611_osr                               0x200003a4   Data           1  drv_ms5611.o(.data)
    ms5611_ut                                0x200003a8   Data           4  drv_ms5611.o(.data)
    ms5611_up                                0x200003ac   Data           4  drv_ms5611.o(.data)
    .data                                    0x200003b0   Section      352  drv_pwm.o(.data)
    chan                                     0x200003b0   Data           1  drv_pwm.o(.data)
    GoodPulses                               0x200003b1   Data           1  drv_pwm.o(.data)
    numMotors                                0x200003b2   Data           2  drv_pwm.o(.data)
    numServos                                0x200003b4   Data           2  drv_pwm.o(.data)
    numInputs                                0x200003b6   Data           2  drv_pwm.o(.data)
    failsafeThreshold                        0x200003b8   Data           2  drv_pwm.o(.data)
    now                                      0x200003ba   Data           2  drv_pwm.o(.data)
    last                                     0x200003bc   Data           2  drv_pwm.o(.data)
    timerHardware                            0x200003c0   Data         320  drv_pwm.o(.data)
    hardwareMaps                             0x20000500   Data          16  drv_pwm.o(.data)
    .data                                    0x20000510   Section        8  drv_system.o(.data)
    usTicks                                  0x20000510   Data           4  drv_system.o(.data)
    sysTickUptime                            0x20000514   Data           4  drv_system.o(.data)
    .data                                    0x20000518   Section       40  drv_uart.o(.data)
    .data                                    0x20000540   Section       20  system_stm32f4xx.o(.data)
    .data                                    0x20000554   Section       16  stm32f4xx_rcc.o(.data)
    APBAHBPrescTable                         0x20000554   Data          16  stm32f4xx_rcc.o(.data)
    .data                                    0x20000564   Section        4  stdout.o(.data)
    .data                                    0x20000568   Section        4  errno.o(.data)
    _errno                                   0x20000568   Data           4  errno.o(.data)
    .bss                                     0x2000056c   Section       48  cli.o(.bss)
    cliBuffer                                0x2000056c   Data          48  cli.o(.bss)
    .bss                                     0x2000059c   Section      928  config.o(.bss)
    .bss                                     0x2000093c   Section      424  gps.o(.bss)
    string                                   0x2000093c   Data          15  gps.o(.bss)
    posholdPID_PARAM                         0x2000094c   Data          16  gps.o(.bss)
    poshold_ratePID_PARAM                    0x2000095c   Data          16  gps.o(.bss)
    navPID_PARAM                             0x2000096c   Data          16  gps.o(.bss)
    posholdPID                               0x2000097c   Data          40  gps.o(.bss)
    poshold_ratePID                          0x200009a4   Data          40  gps.o(.bss)
    navPID                                   0x200009cc   Data          40  gps.o(.bss)
    GPS_filter                               0x200009f4   Data          40  gps.o(.bss)
    _buffer                                  0x20000a1c   Data         200  gps.o(.bss)
    .bss                                     0x20000ae4   Section       36  imu.o(.bss)
    EstM                                     0x20000ae4   Data          12  imu.o(.bss)
    accLPF                                   0x20000af0   Data          12  imu.o(.bss)
    .bss                                     0x20000b08   Section      216  mixer.o(.bss)
    currentMixer                             0x20000b20   Data         192  mixer.o(.bss)
    .bss                                     0x20000be0   Section      238  mw.o(.bss)
    errorGyroI                               0x20000be0   Data          12  mw.o(.bss)
    vbatRawArray                             0x20000bec   Data          16  mw.o(.bss)
    rcData4Values                            0x20000bfc   Data          64  mw.o(.bss)
    rcDataMean                               0x20000c3c   Data          16  mw.o(.bss)
    delta1                                   0x20000c4c   Data          12  mw.o(.bss)
    delta2                                   0x20000c58   Data          12  mw.o(.bss)
    delta1                                   0x20000c64   Data          12  mw.o(.bss)
    delta2                                   0x20000c70   Data          12  mw.o(.bss)
    lastError                                0x20000c7c   Data          12  mw.o(.bss)
    .bss                                     0x20000cce   Section       16  mw.o(.bss)
    .bss                                     0x20000cde   Section       16  mw.o(.bss)
    .bss                                     0x20000cee   Section       16  mw.o(.bss)
    .bss                                     0x20000cfe   Section       16  mw.o(.bss)
    .bss                                     0x20000d10   Section      352  sensors.o(.bss)
    a                                        0x20000d10   Data          12  sensors.o(.bss)
    b                                        0x20000d1c   Data          12  sensors.o(.bss)
    baroHistTab                              0x20000d28   Data         192  sensors.o(.bss)
    g                                        0x20000de8   Data          12  sensors.o(.bss)
    var                                      0x20000df4   Data          60  sensors.o(.bss)
    .bss                                     0x20000e70   Section       84  serial.o(.bss)
    availableBoxes                           0x20000e70   Data          20  serial.o(.bss)
    inBuf                                    0x20000e84   Data          64  serial.o(.bss)
    .bss                                     0x20000ec4   Section       44  spektrum.o(.bss)
    spekChannelData                          0x20000ec4   Data          28  spektrum.o(.bss)
    .bss                                     0x20000ef0   Section       16  drv_ms5611.o(.bss)
    ms5611_c                                 0x20000ef0   Data          16  drv_ms5611.o(.bss)
    .bss                                     0x20000f00   Section      496  drv_pwm.o(.bss)
    pwmPorts                                 0x20000f00   Data         400  drv_pwm.o(.bss)
    captures                                 0x20001090   Data          16  drv_pwm.o(.bss)
    motors                                   0x200010a0   Data          48  drv_pwm.o(.bss)
    servos                                   0x200010d0   Data          32  drv_pwm.o(.bss)
    .bss                                     0x200010f0   Section     1280  drv_uart.o(.bss)
    STACK                                    0x200015f0   Section     1024  startup_stm32f4xx.o(STACK)

    Global Symbols

    Symbol Name                              Value     Ov Type        Size  Object(Section)

    BuildAttributes$$THM_ISAv4$E$P$D$K$B$S$7EM$VFPi3$EXTD16$VFPS$VFMA$PE$A:L22UL41UL21$X:L11$S22US41US21$IEEE1$IW$USESV6$~STKCKD$USESV7$~SHL$OTIME$ROPI$IEEEX$EBA8$MICROLIB$REQ8$PRES8$EABIv2 0x00000000   Number         0  anon$$obj.o ABSOLUTE
    __ARM_use_no_argv                        0x00000000   Number         0  main.o ABSOLUTE
    _printf_a                                0x00000000   Number         0  stubs.o ABSOLUTE
    _printf_c                                0x00000000   Number         0  stubs.o ABSOLUTE
    _printf_charcount                        0x00000000   Number         0  stubs.o ABSOLUTE
    _printf_d                                0x00000000   Number         0  stubs.o ABSOLUTE
    _printf_e                                0x00000000   Number         0  stubs.o ABSOLUTE
    _printf_f                                0x00000000   Number         0  stubs.o ABSOLUTE
    _printf_flags                            0x00000000   Number         0  stubs.o ABSOLUTE
    _printf_fp_dec                           0x00000000   Number         0  stubs.o ABSOLUTE
    _printf_fp_hex                           0x00000000   Number         0  stubs.o ABSOLUTE
    _printf_g                                0x00000000   Number         0  stubs.o ABSOLUTE
    _printf_i                                0x00000000   Number         0  stubs.o ABSOLUTE
    _printf_int_dec                          0x00000000   Number         0  stubs.o ABSOLUTE
    _printf_l                                0x00000000   Number         0  stubs.o ABSOLUTE
    _printf_lc                               0x00000000   Number         0  stubs.o ABSOLUTE
    _printf_ll                               0x00000000   Number         0  stubs.o ABSOLUTE
    _printf_lld                              0x00000000   Number         0  stubs.o ABSOLUTE
    _printf_lli                              0x00000000   Number         0  stubs.o ABSOLUTE
    _printf_llo                              0x00000000   Number         0  stubs.o ABSOLUTE
    _printf_llu                              0x00000000   Number         0  stubs.o ABSOLUTE
    _printf_llx                              0x00000000   Number         0  stubs.o ABSOLUTE
    _printf_longlong_dec                     0x00000000   Number         0  stubs.o ABSOLUTE
    _printf_longlong_hex                     0x00000000   Number         0  stubs.o ABSOLUTE
    _printf_longlong_oct                     0x00000000   Number         0  stubs.o ABSOLUTE
    _printf_ls                               0x00000000   Number         0  stubs.o ABSOLUTE
    _printf_mbtowc                           0x00000000   Number         0  stubs.o ABSOLUTE
    _printf_n                                0x00000000   Number         0  stubs.o ABSOLUTE
    _printf_o                                0x00000000   Number         0  stubs.o ABSOLUTE
    _printf_p                                0x00000000   Number         0  stubs.o ABSOLUTE
    _printf_percent                          0x00000000   Number         0  stubs.o ABSOLUTE
    _printf_pre_padding                      0x00000000   Number         0  stubs.o ABSOLUTE
    _printf_return_value                     0x00000000   Number         0  stubs.o ABSOLUTE
    _printf_s                                0x00000000   Number         0  stubs.o ABSOLUTE
    _printf_sizespec                         0x00000000   Number         0  stubs.o ABSOLUTE
    _printf_str                              0x00000000   Number         0  stubs.o ABSOLUTE
    _printf_truncate_signed                  0x00000000   Number         0  stubs.o ABSOLUTE
    _printf_truncate_unsigned                0x00000000   Number         0  stubs.o ABSOLUTE
    _printf_u                                0x00000000   Number         0  stubs.o ABSOLUTE
    _printf_wc                               0x00000000   Number         0  stubs.o ABSOLUTE
    _printf_wctomb                           0x00000000   Number         0  stubs.o ABSOLUTE
    _printf_widthprec                        0x00000000   Number         0  stubs.o ABSOLUTE
    _printf_x                                0x00000000   Number         0  stubs.o ABSOLUTE
    _clock_init                               - Undefined Weak Reference
    __Vectors_Size                           0x00000188   Number         0  startup_stm32f4xx.o ABSOLUTE
    __Vectors                                0x08000000   Data           4  startup_stm32f4xx.o(RESET)
    __Vectors_End                            0x08000188   Data           0  startup_stm32f4xx.o(RESET)
    __main                                   0x08000189   Thumb Code     0  entry.o(.ARM.Collect$$$$00000000)
    _main_stk                                0x08000189   Thumb Code     0  entry2.o(.ARM.Collect$$$$00000001)
    _main_scatterload                        0x0800018d   Thumb Code     0  entry5.o(.ARM.Collect$$$$00000004)
    __main_after_scatterload                 0x08000191   Thumb Code     0  entry5.o(.ARM.Collect$$$$00000004)
    _main_clock                              0x08000191   Thumb Code     0  entry7b.o(.ARM.Collect$$$$00000008)
    _main_init                               0x08000191   Thumb Code     0  entry8.o(.ARM.Collect$$$$00000009)
    Reset_Handler                            0x0800019d   Thumb Code     8  startup_stm32f4xx.o(.text)
    NMI_Handler                              0x080001a5   Thumb Code     2  startup_stm32f4xx.o(.text)
    MemManage_Handler                        0x080001a9   Thumb Code     2  startup_stm32f4xx.o(.text)
    BusFault_Handler                         0x080001ab   Thumb Code     2  startup_stm32f4xx.o(.text)
    UsageFault_Handler                       0x080001ad   Thumb Code     2  startup_stm32f4xx.o(.text)
    SVC_Handler                              0x080001af   Thumb Code     2  startup_stm32f4xx.o(.text)
    DebugMon_Handler                         0x080001b1   Thumb Code     2  startup_stm32f4xx.o(.text)
    PendSV_Handler                           0x080001b3   Thumb Code     2  startup_stm32f4xx.o(.text)
    ADC_IRQHandler                           0x080001b7   Thumb Code     0  startup_stm32f4xx.o(.text)
    CAN1_RX0_IRQHandler                      0x080001b7   Thumb Code     0  startup_stm32f4xx.o(.text)
    CAN1_RX1_IRQHandler                      0x080001b7   Thumb Code     0  startup_stm32f4xx.o(.text)
    CAN1_SCE_IRQHandler                      0x080001b7   Thumb Code     0  startup_stm32f4xx.o(.text)
    CAN1_TX_IRQHandler                       0x080001b7   Thumb Code     0  startup_stm32f4xx.o(.text)
    CAN2_RX0_IRQHandler                      0x080001b7   Thumb Code     0  startup_stm32f4xx.o(.text)
    CAN2_RX1_IRQHandler                      0x080001b7   Thumb Code     0  startup_stm32f4xx.o(.text)
    CAN2_SCE_IRQHandler                      0x080001b7   Thumb Code     0  startup_stm32f4xx.o(.text)
    CAN2_TX_IRQHandler                       0x080001b7   Thumb Code     0  startup_stm32f4xx.o(.text)
    CRYP_IRQHandler                          0x080001b7   Thumb Code     0  startup_stm32f4xx.o(.text)
    DCMI_IRQHandler                          0x080001b7   Thumb Code     0  startup_stm32f4xx.o(.text)
    DMA1_Stream0_IRQHandler                  0x080001b7   Thumb Code     0  startup_stm32f4xx.o(.text)
    DMA1_Stream1_IRQHandler                  0x080001b7   Thumb Code     0  startup_stm32f4xx.o(.text)
    DMA1_Stream2_IRQHandler                  0x080001b7   Thumb Code     0  startup_stm32f4xx.o(.text)
    DMA1_Stream3_IRQHandler                  0x080001b7   Thumb Code     0  startup_stm32f4xx.o(.text)
    DMA1_Stream4_IRQHandler                  0x080001b7   Thumb Code     0  startup_stm32f4xx.o(.text)
    DMA1_Stream5_IRQHandler                  0x080001b7   Thumb Code     0  startup_stm32f4xx.o(.text)
    DMA1_Stream6_IRQHandler                  0x080001b7   Thumb Code     0  startup_stm32f4xx.o(.text)
    DMA1_Stream7_IRQHandler                  0x080001b7   Thumb Code     0  startup_stm32f4xx.o(.text)
    DMA2_Stream0_IRQHandler                  0x080001b7   Thumb Code     0  startup_stm32f4xx.o(.text)
    DMA2_Stream1_IRQHandler                  0x080001b7   Thumb Code     0  startup_stm32f4xx.o(.text)
    DMA2_Stream2_IRQHandler                  0x080001b7   Thumb Code     0  startup_stm32f4xx.o(.text)
    DMA2_Stream3_IRQHandler                  0x080001b7   Thumb Code     0  startup_stm32f4xx.o(.text)
    DMA2_Stream4_IRQHandler                  0x080001b7   Thumb Code     0  startup_stm32f4xx.o(.text)
    DMA2_Stream5_IRQHandler                  0x080001b7   Thumb Code     0  startup_stm32f4xx.o(.text)
    DMA2_Stream6_IRQHandler                  0x080001b7   Thumb Code     0  startup_stm32f4xx.o(.text)
    ETH_IRQHandler                           0x080001b7   Thumb Code     0  startup_stm32f4xx.o(.text)
    ETH_WKUP_IRQHandler                      0x080001b7   Thumb Code     0  startup_stm32f4xx.o(.text)
    EXTI0_IRQHandler                         0x080001b7   Thumb Code     0  startup_stm32f4xx.o(.text)
    EXTI15_10_IRQHandler                     0x080001b7   Thumb Code     0  startup_stm32f4xx.o(.text)
    EXTI1_IRQHandler                         0x080001b7   Thumb Code     0  startup_stm32f4xx.o(.text)
    EXTI2_IRQHandler                         0x080001b7   Thumb Code     0  startup_stm32f4xx.o(.text)
    EXTI3_IRQHandler                         0x080001b7   Thumb Code     0  startup_stm32f4xx.o(.text)
    FLASH_IRQHandler                         0x080001b7   Thumb Code     0  startup_stm32f4xx.o(.text)
    FPU_IRQHandler                           0x080001b7   Thumb Code     0  startup_stm32f4xx.o(.text)
    FSMC_IRQHandler                          0x080001b7   Thumb Code     0  startup_stm32f4xx.o(.text)
    HASH_RNG_IRQHandler                      0x080001b7   Thumb Code     0  startup_stm32f4xx.o(.text)
    I2C3_ER_IRQHandler                       0x080001b7   Thumb Code     0  startup_stm32f4xx.o(.text)
    I2C3_EV_IRQHandler                       0x080001b7   Thumb Code     0  startup_stm32f4xx.o(.text)
    OTG_FS_IRQHandler                        0x080001b7   Thumb Code     0  startup_stm32f4xx.o(.text)
    OTG_FS_WKUP_IRQHandler                   0x080001b7   Thumb Code     0  startup_stm32f4xx.o(.text)
    OTG_HS_EP1_IN_IRQHandler                 0x080001b7   Thumb Code     0  startup_stm32f4xx.o(.text)
    OTG_HS_EP1_OUT_IRQHandler                0x080001b7   Thumb Code     0  startup_stm32f4xx.o(.text)
    OTG_HS_IRQHandler                        0x080001b7   Thumb Code     0  startup_stm32f4xx.o(.text)
    OTG_HS_WKUP_IRQHandler                   0x080001b7   Thumb Code     0  startup_stm32f4xx.o(.text)
    PVD_IRQHandler                           0x080001b7   Thumb Code     0  startup_stm32f4xx.o(.text)
    RCC_IRQHandler                           0x080001b7   Thumb Code     0  startup_stm32f4xx.o(.text)
    RTC_Alarm_IRQHandler                     0x080001b7   Thumb Code     0  startup_stm32f4xx.o(.text)
    RTC_WKUP_IRQHandler                      0x080001b7   Thumb Code     0  startup_stm32f4xx.o(.text)
    SDIO_IRQHandler                          0x080001b7   Thumb Code     0  startup_stm32f4xx.o(.text)
    SPI1_IRQHandler                          0x080001b7   Thumb Code     0  startup_stm32f4xx.o(.text)
    SPI2_IRQHandler                          0x080001b7   Thumb Code     0  startup_stm32f4xx.o(.text)
    SPI3_IRQHandler                          0x080001b7   Thumb Code     0  startup_stm32f4xx.o(.text)
    TAMP_STAMP_IRQHandler                    0x080001b7   Thumb Code     0  startup_stm32f4xx.o(.text)
    TIM1_BRK_TIM9_IRQHandler                 0x080001b7   Thumb Code     0  startup_stm32f4xx.o(.text)
    TIM1_TRG_COM_TIM11_IRQHandler            0x080001b7   Thumb Code     0  startup_stm32f4xx.o(.text)
    TIM1_UP_TIM10_IRQHandler                 0x080001b7   Thumb Code     0  startup_stm32f4xx.o(.text)
    TIM6_DAC_IRQHandler                      0x080001b7   Thumb Code     0  startup_stm32f4xx.o(.text)
    TIM7_IRQHandler                          0x080001b7   Thumb Code     0  startup_stm32f4xx.o(.text)
    TIM8_BRK_TIM12_IRQHandler                0x080001b7   Thumb Code     0  startup_stm32f4xx.o(.text)
    TIM8_TRG_COM_TIM14_IRQHandler            0x080001b7   Thumb Code     0  startup_stm32f4xx.o(.text)
    TIM8_UP_TIM13_IRQHandler                 0x080001b7   Thumb Code     0  startup_stm32f4xx.o(.text)
    UART4_IRQHandler                         0x080001b7   Thumb Code     0  startup_stm32f4xx.o(.text)
    UART5_IRQHandler                         0x080001b7   Thumb Code     0  startup_stm32f4xx.o(.text)
    USART1_IRQHandler                        0x080001b7   Thumb Code     0  startup_stm32f4xx.o(.text)
    USART6_IRQHandler                        0x080001b7   Thumb Code     0  startup_stm32f4xx.o(.text)
    WWDG_IRQHandler                          0x080001b7   Thumb Code     0  startup_stm32f4xx.o(.text)
    buzzer                                   0x080002a5   Thumb Code   284  buzzer.o(.text)
    itoa                                     0x08000401   Thumb Code    40  cli.o(.text)
    cliProcess                               0x0800143b   Thumb Code   426  cli.o(.text)
    parseRcChannels                          0x08001771   Thumb Code    44  config.o(.text)
    readEEPROM                               0x080017d9   Thumb Code   282  config.o(.text)
    writeEEPROM                              0x080018f3   Thumb Code   194  config.o(.text)
    featureSet                               0x080019b5   Thumb Code    10  config.o(.text)
    featureClearAll                          0x080019bf   Thumb Code     8  config.o(.text)
    checkFirstTime                           0x08001c77   Thumb Code    30  config.o(.text)
    sensors                                  0x08001c95   Thumb Code    16  config.o(.text)
    sensorsSet                               0x08001ca5   Thumb Code    10  config.o(.text)
    sensorsClear                             0x08001caf   Thumb Code    10  config.o(.text)
    sensorsMask                              0x08001cb9   Thumb Code     6  config.o(.text)
    feature                                  0x08001cbf   Thumb Code    16  config.o(.text)
    featureClear                             0x08001ccf   Thumb Code    10  config.o(.text)
    featureMask                              0x08001cd9   Thumb Code     6  config.o(.text)
    wrap_18000                               0x08001d3b   Thumb Code    26  gps.o(.text)
    GPS_reset_home_position                  0x08002209   Thumb Code    48  gps.o(.text)
    GPS_coord_to_degrees                     0x0800244b   Thumb Code   158  gps.o(.text)
    gpsInit                                  0x080029af   Thumb Code   312  gps.o(.text)
    leadFilter_clear                         0x08002ae7   Thumb Code     6  gps.o(.text)
    leadFilter_getPosition                   0x08002aed   Thumb Code    68  gps.o(.text)
    GPS_reset_nav                            0x08002b31   Thumb Code    82  gps.o(.text)
    GPS_set_next_wp                          0x08002b83   Thumb Code    78  gps.o(.text)
    _update_checksum                         0x08002bd1   Thumb Code    32  gps.o(.text)
    imuInit                                  0x08002ced   Thumb Code    82  imu.o(.text)
    rotateV                                  0x08002d3f   Thumb Code   208  imu.o(.text)
    computeIMU                               0x080030af   Thumb Code   342  imu.o(.text)
    applyDeadband                            0x08003205   Thumb Code    36  imu.o(.text)
    getEstimatedAltitude                     0x08003229   Thumb Code   564  imu.o(.text)
    fputc                                    0x080034b1   Thumb Code    22  main.o(.text)
    main                                     0x080034c7   Thumb Code   436  main.o(.text)
    HardFault_Handler                        0x0800367b   Thumb Code    12  main.o(.text)
    mixerInit                                0x080036bd   Thumb Code   132  mixer.o(.text)
    mixerLoadMix                             0x08003741   Thumb Code    74  mixer.o(.text)
    writeServos                              0x0800378b   Thumb Code    96  mixer.o(.text)
    writeMotors                              0x080037eb   Thumb Code    36  mixer.o(.text)
    writeAllMotors                           0x0800380f   Thumb Code    28  mixer.o(.text)
    mixTable                                 0x0800382b   Thumb Code  1114  mixer.o(.text)
    blinkLED                                 0x08003c8d   Thumb Code    86  mw.o(.text)
    annexCode                                0x08003ce3   Thumb Code   914  mw.o(.text)
    pwmReadRawRC                             0x08004075   Thumb Code    32  mw.o(.text)
    computeRC                                0x08004095   Thumb Code   202  mw.o(.text)
    setPIDController                         0x080044db   Thumb Code    16  mw.o(.text)
    loop                                     0x080044eb   Thumb Code  2358  mw.o(.text)
    sensorsAutodetect                        0x08004e35   Thumb Code   306  sensors.o(.text)
    batteryAdcToVoltage                      0x08004f67   Thumb Code    54  sensors.o(.text)
    batteryInit                              0x08004f9d   Thumb Code    74  sensors.o(.text)
    ACC_getADC                               0x080051dd   Thumb Code    42  sensors.o(.text)
    Baro_Common                              0x08005207   Thumb Code   130  sensors.o(.text)
    Baro_update                              0x08005289   Thumb Code    86  sensors.o(.text)
    Gyro_getADC                              0x0800547b   Thumb Code    42  sensors.o(.text)
    Mag_init                                 0x080054a5   Thumb Code    26  sensors.o(.text)
    Mag_getADC                               0x080054bf   Thumb Code   348  sensors.o(.text)
    Sonar_init                               0x0800561b   Thumb Code    22  sensors.o(.text)
    Sonar_update                             0x08005631   Thumb Code     6  sensors.o(.text)
    serialize32                              0x08005675   Thumb Code    76  serial.o(.text)
    serialize16                              0x080056c1   Thumb Code    42  serial.o(.text)
    serialize8                               0x080056eb   Thumb Code    18  serial.o(.text)
    read8                                    0x080056fd   Thumb Code    14  serial.o(.text)
    read16                                   0x0800570b   Thumb Code    20  serial.o(.text)
    read32                                   0x0800571f   Thumb Code    18  serial.o(.text)
    headSerialResponse                       0x08005731   Thumb Code    50  serial.o(.text)
    headSerialReply                          0x08005763   Thumb Code     6  serial.o(.text)
    headSerialError                          0x08005769   Thumb Code     6  serial.o(.text)
    tailSerialReply                          0x0800576f   Thumb Code     6  serial.o(.text)
    serializeNames                           0x08005775   Thumb Code    22  serial.o(.text)
    serializeBoxNamesReply                   0x0800578b   Thumb Code   120  serial.o(.text)
    serialInit                               0x08005803   Thumb Code   190  serial.o(.text)
    serialCom                                0x08005f9f   Thumb Code   232  serial.o(.text)
    spektrumInit                             0x080060eb   Thumb Code    36  spektrum.o(.text)
    spektrumFrameComplete                    0x0800610f   Thumb Code     6  spektrum.o(.text)
    spektrumReadRawRC                        0x08006115   Thumb Code   124  spektrum.o(.text)
    initTelemetry                            0x08006279   Thumb Code    34  telemetry.o(.text)
    sendTelemetry                            0x0800629b   Thumb Code   406  telemetry.o(.text)
    adcInit                                  0x080064dd   Thumb Code   254  drv_adc.o(.text)
    adcGetChannel                            0x080065db   Thumb Code     8  drv_adc.o(.text)
    adxl345Detect                            0x08006709   Thumb Code    60  drv_adxl345.o(.text)
    ECHO_EXTI_IRQHandler                     0x08006759   Thumb Code    54  drv_hcsr04.o(.text)
    EXTI4_IRQHandler                         0x0800678f   Thumb Code     2  drv_hcsr04.o(.text)
    EXTI9_5_IRQHandler                       0x08006791   Thumb Code     2  drv_hcsr04.o(.text)
    hcsr04_init                              0x08006793   Thumb Code   150  drv_hcsr04.o(.text)
    hcsr04_get_distance                      0x08006829   Thumb Code    52  drv_hcsr04.o(.text)
    hmc5883lDetect                           0x08006865   Thumb Code    50  drv_hmc5883l.o(.text)
    hmc5883lRead                             0x08006897   Thumb Code    94  drv_hmc5883l.o(.text)
    hmc5883lInit                             0x080068f5   Thumb Code   502  drv_hmc5883l.o(.text)
    i2cInit                                  0x08006b0d   Thumb Code   182  drv_i2c.o(.text)
    I2C1_ER_IRQHandler                       0x08006c35   Thumb Code     2  drv_i2c.o(.text)
    I2C1_EV_IRQHandler                       0x08006e57   Thumb Code     2  drv_i2c.o(.text)
    I2C2_ER_IRQHandler                       0x08006e59   Thumb Code     2  drv_i2c.o(.text)
    I2C2_EV_IRQHandler                       0x08006e5b   Thumb Code     2  drv_i2c.o(.text)
    i2cWriteBuffer                           0x08006e5d   Thumb Code   108  drv_i2c.o(.text)
    i2cWrite                                 0x08006ec9   Thumb Code    12  drv_i2c.o(.text)
    i2cRead                                  0x08006ed5   Thumb Code   124  drv_i2c.o(.text)
    i2cGetErrorCounter                       0x08006f51   Thumb Code     6  drv_i2c.o(.text)
    l3g4200dDetect                           0x080070ab   Thumb Code    90  drv_l3g4200d.o(.text)
    ledringDetect                            0x08007119   Thumb Code    20  drv_ledring.o(.text)
    ledringState                             0x0800712d   Thumb Code   194  drv_ledring.o(.text)
    ledringBlink                             0x080071ef   Thumb Code    32  drv_ledring.o(.text)
    mma8452Detect                            0x080072ef   Thumb Code    60  drv_mma845x.o(.text)
    mpu3050Detect                            0x0800740d   Thumb Code   106  drv_mpu3050.o(.text)
    mpu6000Detect                            0x080075fd   Thumb Code   164  drv_mpu6000.o(.text)
    ms5611Detect                             0x0800782b   Thumb Code   138  drv_ms5611.o(.text)
    TIM1_CC_IRQHandler                       0x08007bb1   Thumb Code   158  drv_pwm.o(.text)
    TIM8_CC_IRQHandler                       0x08007c4f   Thumb Code   158  drv_pwm.o(.text)
    TIM2_IRQHandler                          0x08007ced   Thumb Code    80  drv_pwm.o(.text)
    TIM3_IRQHandler                          0x08007d3d   Thumb Code   130  drv_pwm.o(.text)
    TIM4_IRQHandler                          0x08007dbf   Thumb Code   150  drv_pwm.o(.text)
    TIM5_IRQHandler                          0x08007e55   Thumb Code   156  drv_pwm.o(.text)
    pwmInit                                  0x08007fad   Thumb Code   204  drv_pwm.o(.text)
    pwmWriteMotor                            0x08008079   Thumb Code    22  drv_pwm.o(.text)
    pwmWriteServo                            0x0800808f   Thumb Code    22  drv_pwm.o(.text)
    pwmRead                                  0x080080a5   Thumb Code     8  drv_pwm.o(.text)
    init_SPI1                                0x0800818d   Thumb Code   178  drv_spi.o(.text)
    spi_writeByte                            0x0800823f   Thumb Code    50  drv_spi.o(.text)
    spi_readByte                             0x08008271   Thumb Code    46  drv_spi.o(.text)
    init_SPI2                                0x0800829f   Thumb Code   174  drv_spi.o(.text)
    SPI2_send                                0x0800834d   Thumb Code    32  drv_spi.o(.text)
    SPI2_main                                0x0800836d   Thumb Code    40  drv_spi.o(.text)
    SysTick_Handler                          0x080083a9   Thumb Code    10  drv_system.o(.text)
    micros                                   0x080083b3   Thumb Code    52  drv_system.o(.text)
    millis                                   0x080083e7   Thumb Code     6  drv_system.o(.text)
    delayMicroseconds                        0x080083ed   Thumb Code    26  drv_system.o(.text)
    delay                                    0x08008407   Thumb Code    22  drv_system.o(.text)
    systemInit                               0x0800841d   Thumb Code   230  drv_system.o(.text)
    failureMode                              0x08008503   Thumb Code    64  drv_system.o(.text)
    systemReset                              0x08008543   Thumb Code    18  drv_system.o(.text)
    DMA2_Stream7_IRQHandler                  0x080085c7   Thumb Code    58  drv_uart.o(.text)
    uartInit                                 0x08008601   Thumb Code   358  drv_uart.o(.text)
    isUartAvailable                          0x08008767   Thumb Code    26  drv_uart.o(.text)
    isUartTransmitDMAEmpty                   0x08008781   Thumb Code     6  drv_uart.o(.text)
    isUartTransmitEmpty                      0x08008787   Thumb Code    18  drv_uart.o(.text)
    uartRead                                 0x08008799   Thumb Code    28  drv_uart.o(.text)
    uartReadPoll                             0x080087b5   Thumb Code    18  drv_uart.o(.text)
    uartWrite                                0x080087c7   Thumb Code    50  drv_uart.o(.text)
    uartPrint                                0x080087f9   Thumb Code    20  drv_uart.o(.text)
    uart2Init                                0x08008853   Thumb Code   182  drv_uart.o(.text)
    uart2ChangeBaud                          0x08008909   Thumb Code     2  drv_uart.o(.text)
    uart2Write                               0x0800890b   Thumb Code    36  drv_uart.o(.text)
    isUart2TransmitEmpty                     0x0800892f   Thumb Code    18  drv_uart.o(.text)
    USART2_IRQHandler                        0x08008941   Thumb Code   120  drv_uart.o(.text)
    uart3Init                                0x080089ff   Thumb Code   182  drv_uart.o(.text)
    uart3ChangeBaud                          0x08008ab5   Thumb Code     2  drv_uart.o(.text)
    uart3Write                               0x08008ab7   Thumb Code    36  drv_uart.o(.text)
    isUart3TransmitEmpty                     0x08008adb   Thumb Code    18  drv_uart.o(.text)
    USART3_IRQHandler                        0x08008aed   Thumb Code    78  drv_uart.o(.text)
    SystemInit                               0x08008b4d   Thumb Code    74  system_stm32f4xx.o(.text)
    SystemCoreClockUpdate                    0x08008b97   Thumb Code   112  system_stm32f4xx.o(.text)
    NVIC_PriorityGroupConfig                 0x08008cb9   Thumb Code    10  misc.o(.text)
    NVIC_Init                                0x08008cc3   Thumb Code    92  misc.o(.text)
    NVIC_SetVectorTable                      0x08008d1f   Thumb Code    14  misc.o(.text)
    NVIC_SystemLPConfig                      0x08008d2d   Thumb Code    20  misc.o(.text)
    SysTick_CLKSourceConfig                  0x08008d41   Thumb Code    24  misc.o(.text)
    ADC_DeInit                               0x08008d69   Thumb Code    24  stm32f4xx_adc.o(.text)
    ADC_Init                                 0x08008d81   Thumb Code    66  stm32f4xx_adc.o(.text)
    ADC_StructInit                           0x08008dc3   Thumb Code    20  stm32f4xx_adc.o(.text)
    ADC_CommonInit                           0x08008dd7   Thumb Code    40  stm32f4xx_adc.o(.text)
    ADC_CommonStructInit                     0x08008dff   Thumb Code    12  stm32f4xx_adc.o(.text)
    ADC_Cmd                                  0x08008e0b   Thumb Code    20  stm32f4xx_adc.o(.text)
    ADC_AnalogWatchdogCmd                    0x08008e1f   Thumb Code    12  stm32f4xx_adc.o(.text)
    ADC_AnalogWatchdogThresholdsConfig       0x08008e2b   Thumb Code     6  stm32f4xx_adc.o(.text)
    ADC_AnalogWatchdogSingleChannelConfig    0x08008e31   Thumb Code    12  stm32f4xx_adc.o(.text)
    ADC_TempSensorVrefintCmd                 0x08008e3d   Thumb Code    26  stm32f4xx_adc.o(.text)
    ADC_VBATCmd                              0x08008e57   Thumb Code    26  stm32f4xx_adc.o(.text)
    ADC_RegularChannelConfig                 0x08008e71   Thumb Code   116  stm32f4xx_adc.o(.text)
    ADC_SoftwareStartConv                    0x08008ee5   Thumb Code    10  stm32f4xx_adc.o(.text)
    ADC_GetSoftwareStartConvStatus           0x08008eef   Thumb Code    14  stm32f4xx_adc.o(.text)
    ADC_EOCOnEachRegularChannelCmd           0x08008efd   Thumb Code    20  stm32f4xx_adc.o(.text)
    ADC_ContinuousModeCmd                    0x08008f11   Thumb Code    20  stm32f4xx_adc.o(.text)
    ADC_DiscModeChannelCountConfig           0x08008f25   Thumb Code    16  stm32f4xx_adc.o(.text)
    ADC_DiscModeCmd                          0x08008f35   Thumb Code    20  stm32f4xx_adc.o(.text)
    ADC_GetConversionValue                   0x08008f49   Thumb Code     6  stm32f4xx_adc.o(.text)
    ADC_GetMultiModeConversionValue          0x08008f4f   Thumb Code     6  stm32f4xx_adc.o(.text)
    ADC_DMACmd                               0x08008f55   Thumb Code    20  stm32f4xx_adc.o(.text)
    ADC_DMARequestAfterLastTransferCmd       0x08008f69   Thumb Code    20  stm32f4xx_adc.o(.text)
    ADC_MultiModeDMARequestAfterLastTransferCmd 0x08008f7d   Thumb Code    26  stm32f4xx_adc.o(.text)
    ADC_InjectedChannelConfig                0x08008f97   Thumb Code    74  stm32f4xx_adc.o(.text)
    ADC_InjectedSequencerLengthConfig        0x08008fe1   Thumb Code    16  stm32f4xx_adc.o(.text)
    ADC_SetInjectedOffset                    0x08008ff1   Thumb Code     4  stm32f4xx_adc.o(.text)
    ADC_ExternalTrigInjectedConvConfig       0x08008ff5   Thumb Code    12  stm32f4xx_adc.o(.text)
    ADC_ExternalTrigInjectedConvEdgeConfig   0x08009001   Thumb Code    12  stm32f4xx_adc.o(.text)
    ADC_SoftwareStartInjectedConv            0x0800900d   Thumb Code    10  stm32f4xx_adc.o(.text)
    ADC_GetSoftwareStartInjectedConvCmdStatus 0x08009017   Thumb Code    14  stm32f4xx_adc.o(.text)
    ADC_AutoInjectedConvCmd                  0x08009025   Thumb Code    20  stm32f4xx_adc.o(.text)
    ADC_InjectedDiscModeCmd                  0x08009039   Thumb Code    20  stm32f4xx_adc.o(.text)
    ADC_GetInjectedConversionValue           0x0800904d   Thumb Code     8  stm32f4xx_adc.o(.text)
    ADC_ITConfig                             0x08009055   Thumb Code    18  stm32f4xx_adc.o(.text)
    ADC_GetFlagStatus                        0x08009067   Thumb Code    14  stm32f4xx_adc.o(.text)
    ADC_ClearFlag                            0x08009075   Thumb Code     6  stm32f4xx_adc.o(.text)
    ADC_GetITStatus                          0x0800907b   Thumb Code    28  stm32f4xx_adc.o(.text)
    ADC_ClearITPendingBit                    0x08009097   Thumb Code     8  stm32f4xx_adc.o(.text)
    DMA_DeInit                               0x080090bd   Thumb Code   270  stm32f4xx_dma.o(.text)
    DMA_Init                                 0x080091cb   Thumb Code    80  stm32f4xx_dma.o(.text)
    DMA_StructInit                           0x0800921b   Thumb Code    34  stm32f4xx_dma.o(.text)
    DMA_Cmd                                  0x0800923d   Thumb Code    20  stm32f4xx_dma.o(.text)
    DMA_PeriphIncOffsetSizeConfig            0x08009251   Thumb Code    20  stm32f4xx_dma.o(.text)
    DMA_FlowControllerConfig                 0x08009265   Thumb Code    20  stm32f4xx_dma.o(.text)
    DMA_SetCurrDataCounter                   0x08009279   Thumb Code     4  stm32f4xx_dma.o(.text)
    DMA_GetCurrDataCounter                   0x0800927d   Thumb Code     6  stm32f4xx_dma.o(.text)
    DMA_DoubleBufferModeConfig               0x08009283   Thumb Code    22  stm32f4xx_dma.o(.text)
    DMA_DoubleBufferModeCmd                  0x08009299   Thumb Code    20  stm32f4xx_dma.o(.text)
    DMA_MemoryTargetConfig                   0x080092ad   Thumb Code    10  stm32f4xx_dma.o(.text)
    DMA_GetCurrentMemoryTarget               0x080092b7   Thumb Code    14  stm32f4xx_dma.o(.text)
    DMA_GetCmdStatus                         0x080092c5   Thumb Code    14  stm32f4xx_dma.o(.text)
    DMA_GetFIFOStatus                        0x080092d3   Thumb Code     8  stm32f4xx_dma.o(.text)
    DMA_GetFlagStatus                        0x080092db   Thumb Code    42  stm32f4xx_dma.o(.text)
    DMA_ClearFlag                            0x08009305   Thumb Code    34  stm32f4xx_dma.o(.text)
    DMA_ITConfig                             0x08009327   Thumb Code    44  stm32f4xx_dma.o(.text)
    DMA_GetITStatus                          0x08009353   Thumb Code    72  stm32f4xx_dma.o(.text)
    DMA_ClearITPendingBit                    0x0800939b   Thumb Code    34  stm32f4xx_dma.o(.text)
    EXTI_DeInit                              0x080093dd   Thumb Code    28  stm32f4xx_exti.o(.text)
    EXTI_Init                                0x080093f9   Thumb Code   112  stm32f4xx_exti.o(.text)
    EXTI_StructInit                          0x08009469   Thumb Code    14  stm32f4xx_exti.o(.text)
    EXTI_GenerateSWInterrupt                 0x08009477   Thumb Code    12  stm32f4xx_exti.o(.text)
    EXTI_GetFlagStatus                       0x08009483   Thumb Code    18  stm32f4xx_exti.o(.text)
    EXTI_ClearFlag                           0x08009495   Thumb Code     8  stm32f4xx_exti.o(.text)
    EXTI_GetITStatus                         0x0800949d   Thumb Code    28  stm32f4xx_exti.o(.text)
    EXTI_ClearITPendingBit                   0x080094b9   Thumb Code     8  stm32f4xx_exti.o(.text)
    FLASH_SetLatency                         0x080094c9   Thumb Code     6  stm32f4xx_flash.o(.text)
    FLASH_PrefetchBufferCmd                  0x080094cf   Thumb Code    22  stm32f4xx_flash.o(.text)
    FLASH_InstructionCacheCmd                0x080094e5   Thumb Code    22  stm32f4xx_flash.o(.text)
    FLASH_DataCacheCmd                       0x080094fb   Thumb Code    22  stm32f4xx_flash.o(.text)
    FLASH_InstructionCacheReset              0x08009511   Thumb Code    12  stm32f4xx_flash.o(.text)
    FLASH_DataCacheReset                     0x0800951d   Thumb Code    12  stm32f4xx_flash.o(.text)
    FLASH_Unlock                             0x08009529   Thumb Code    24  stm32f4xx_flash.o(.text)
    FLASH_Lock                               0x08009541   Thumb Code    14  stm32f4xx_flash.o(.text)
    FLASH_GetStatus                          0x0800954f   Thumb Code    48  stm32f4xx_flash.o(.text)
    FLASH_WaitForLastOperation               0x0800957f   Thumb Code    12  stm32f4xx_flash.o(.text)
    FLASH_EraseSector                        0x0800958b   Thumb Code   110  stm32f4xx_flash.o(.text)
    FLASH_EraseAllSectors                    0x080095f9   Thumb Code    92  stm32f4xx_flash.o(.text)
    FLASH_ProgramDoubleWord                  0x08009655   Thumb Code    62  stm32f4xx_flash.o(.text)
    FLASH_ProgramWord                        0x08009693   Thumb Code    60  stm32f4xx_flash.o(.text)
    FLASH_ProgramHalfWord                    0x080096cf   Thumb Code    60  stm32f4xx_flash.o(.text)
    FLASH_ProgramByte                        0x0800970b   Thumb Code    56  stm32f4xx_flash.o(.text)
    FLASH_OB_Unlock                          0x08009743   Thumb Code    24  stm32f4xx_flash.o(.text)
    FLASH_OB_Lock                            0x0800975b   Thumb Code    14  stm32f4xx_flash.o(.text)
    FLASH_OB_WRPConfig                       0x08009769   Thumb Code    36  stm32f4xx_flash.o(.text)
    FLASH_OB_RDPConfig                       0x0800978d   Thumb Code    20  stm32f4xx_flash.o(.text)
    FLASH_OB_UserConfig                      0x080097a1   Thumb Code    36  stm32f4xx_flash.o(.text)
    FLASH_OB_BORConfig                       0x080097c5   Thumb Code    20  stm32f4xx_flash.o(.text)
    FLASH_OB_Launch                          0x080097d9   Thumb Code    14  stm32f4xx_flash.o(.text)
    FLASH_OB_GetUser                         0x080097e7   Thumb Code    12  stm32f4xx_flash.o(.text)
    FLASH_OB_GetWRP                          0x080097f3   Thumb Code     8  stm32f4xx_flash.o(.text)
    FLASH_OB_GetRDP                          0x080097fb   Thumb Code    16  stm32f4xx_flash.o(.text)
    FLASH_OB_GetBOR                          0x0800980b   Thumb Code    12  stm32f4xx_flash.o(.text)
    FLASH_ITConfig                           0x08009817   Thumb Code    20  stm32f4xx_flash.o(.text)
    FLASH_GetFlagStatus                      0x0800982b   Thumb Code    18  stm32f4xx_flash.o(.text)
    FLASH_ClearFlag                          0x0800983d   Thumb Code     8  stm32f4xx_flash.o(.text)
    GPIO_DeInit                              0x08009859   Thumb Code   192  stm32f4xx_gpio.o(.text)
    GPIO_Init                                0x08009919   Thumb Code   124  stm32f4xx_gpio.o(.text)
    GPIO_StructInit                          0x08009995   Thumb Code    18  stm32f4xx_gpio.o(.text)
    GPIO_PinLockConfig                       0x080099a7   Thumb Code    16  stm32f4xx_gpio.o(.text)
    GPIO_ReadInputDataBit                    0x080099b7   Thumb Code    14  stm32f4xx_gpio.o(.text)
    GPIO_ReadInputData                       0x080099c5   Thumb Code     6  stm32f4xx_gpio.o(.text)
    GPIO_ReadOutputDataBit                   0x080099cb   Thumb Code    14  stm32f4xx_gpio.o(.text)
    GPIO_ReadOutputData                      0x080099d9   Thumb Code     6  stm32f4xx_gpio.o(.text)
    GPIO_SetBits                             0x080099df   Thumb Code     4  stm32f4xx_gpio.o(.text)
    GPIO_ResetBits                           0x080099e3   Thumb Code     4  stm32f4xx_gpio.o(.text)
    GPIO_WriteBit                            0x080099e7   Thumb Code    10  stm32f4xx_gpio.o(.text)
    GPIO_Write                               0x080099f1   Thumb Code     4  stm32f4xx_gpio.o(.text)
    GPIO_ToggleBits                          0x080099f5   Thumb Code     8  stm32f4xx_gpio.o(.text)
    GPIO_PinAFConfig                         0x080099fd   Thumb Code    32  stm32f4xx_gpio.o(.text)
    I2C_DeInit                               0x08009a41   Thumb Code    56  stm32f4xx_i2c.o(.text)
    I2C_Init                                 0x08009a79   Thumb Code   172  stm32f4xx_i2c.o(.text)
    I2C_StructInit                           0x08009b25   Thumb Code    28  stm32f4xx_i2c.o(.text)
    I2C_Cmd                                  0x08009b41   Thumb Code    20  stm32f4xx_i2c.o(.text)
    I2C_GenerateSTART                        0x08009b55   Thumb Code    20  stm32f4xx_i2c.o(.text)
    I2C_GenerateSTOP                         0x08009b69   Thumb Code    20  stm32f4xx_i2c.o(.text)
    I2C_Send7bitAddress                      0x08009b7d   Thumb Code    16  stm32f4xx_i2c.o(.text)
    I2C_AcknowledgeConfig                    0x08009b8d   Thumb Code    20  stm32f4xx_i2c.o(.text)
    I2C_OwnAddress2Config                    0x08009ba1   Thumb Code    16  stm32f4xx_i2c.o(.text)
    I2C_DualAddressCmd                       0x08009bb1   Thumb Code    20  stm32f4xx_i2c.o(.text)
    I2C_GeneralCallCmd                       0x08009bc5   Thumb Code    20  stm32f4xx_i2c.o(.text)
    I2C_SoftwareResetCmd                     0x08009bd9   Thumb Code    20  stm32f4xx_i2c.o(.text)
    I2C_StretchClockCmd                      0x08009bed   Thumb Code    20  stm32f4xx_i2c.o(.text)
    I2C_FastModeDutyCycleConfig              0x08009c01   Thumb Code    22  stm32f4xx_i2c.o(.text)
    I2C_NACKPositionConfig                   0x08009c17   Thumb Code    22  stm32f4xx_i2c.o(.text)
    I2C_SMBusAlertConfig                     0x08009c2d   Thumb Code    22  stm32f4xx_i2c.o(.text)
    I2C_ARPCmd                               0x08009c43   Thumb Code    20  stm32f4xx_i2c.o(.text)
    I2C_SendData                             0x08009c57   Thumb Code     4  stm32f4xx_i2c.o(.text)
    I2C_ReceiveData                          0x08009c5b   Thumb Code     6  stm32f4xx_i2c.o(.text)
    I2C_TransmitPEC                          0x08009c61   Thumb Code    20  stm32f4xx_i2c.o(.text)
    I2C_PECPositionConfig                    0x08009c75   Thumb Code    22  stm32f4xx_i2c.o(.text)
    I2C_CalculatePEC                         0x08009c8b   Thumb Code    20  stm32f4xx_i2c.o(.text)
    I2C_GetPEC                               0x08009c9f   Thumb Code     6  stm32f4xx_i2c.o(.text)
    I2C_DMACmd                               0x08009ca5   Thumb Code    20  stm32f4xx_i2c.o(.text)
    I2C_DMALastTransferCmd                   0x08009cb9   Thumb Code    20  stm32f4xx_i2c.o(.text)
    I2C_ReadRegister                         0x08009ccd   Thumb Code     4  stm32f4xx_i2c.o(.text)
    I2C_ITConfig                             0x08009cd1   Thumb Code    16  stm32f4xx_i2c.o(.text)
    I2C_CheckEvent                           0x08009ce1   Thumb Code    24  stm32f4xx_i2c.o(.text)
    I2C_GetLastEvent                         0x08009cf9   Thumb Code    14  stm32f4xx_i2c.o(.text)
    I2C_GetFlagStatus                        0x08009d07   Thumb Code    30  stm32f4xx_i2c.o(.text)
    I2C_ClearFlag                            0x08009d25   Thumb Code     6  stm32f4xx_i2c.o(.text)
    I2C_GetITStatus                          0x08009d2b   Thumb Code    32  stm32f4xx_i2c.o(.text)
    I2C_ClearITPendingBit                    0x08009d4b   Thumb Code     6  stm32f4xx_i2c.o(.text)
    RCC_DeInit                               0x08009d65   Thumb Code    48  stm32f4xx_rcc.o(.text)
    RCC_HSEConfig                            0x08009d95   Thumb Code    12  stm32f4xx_rcc.o(.text)
    RCC_GetFlagStatus                        0x08009da1   Thumb Code    46  stm32f4xx_rcc.o(.text)
    RCC_WaitForHSEStartUp                    0x08009dcf   Thumb Code    42  stm32f4xx_rcc.o(.text)
    RCC_AdjustHSICalibrationValue            0x08009df9   Thumb Code    16  stm32f4xx_rcc.o(.text)
    RCC_HSICmd                               0x08009e09   Thumb Code     6  stm32f4xx_rcc.o(.text)
    RCC_LSEConfig                            0x08009e0f   Thumb Code    24  stm32f4xx_rcc.o(.text)
    RCC_LSICmd                               0x08009e27   Thumb Code     6  stm32f4xx_rcc.o(.text)
    RCC_PLLConfig                            0x08009e2d   Thumb Code    32  stm32f4xx_rcc.o(.text)
    RCC_PLLCmd                               0x08009e4d   Thumb Code     6  stm32f4xx_rcc.o(.text)
    RCC_PLLI2SConfig                         0x08009e53   Thumb Code    14  stm32f4xx_rcc.o(.text)
    RCC_PLLI2SCmd                            0x08009e61   Thumb Code     6  stm32f4xx_rcc.o(.text)
    RCC_ClockSecuritySystemCmd               0x08009e67   Thumb Code     6  stm32f4xx_rcc.o(.text)
    RCC_MCO1Config                           0x08009e6d   Thumb Code    18  stm32f4xx_rcc.o(.text)
    RCC_MCO2Config                           0x08009e7f   Thumb Code    18  stm32f4xx_rcc.o(.text)
    RCC_SYSCLKConfig                         0x08009e91   Thumb Code    16  stm32f4xx_rcc.o(.text)
    RCC_GetSYSCLKSource                      0x08009ea1   Thumb Code    12  stm32f4xx_rcc.o(.text)
    RCC_HCLKConfig                           0x08009ead   Thumb Code    16  stm32f4xx_rcc.o(.text)
    RCC_PCLK1Config                          0x08009ebd   Thumb Code    16  stm32f4xx_rcc.o(.text)
    RCC_PCLK2Config                          0x08009ecd   Thumb Code    18  stm32f4xx_rcc.o(.text)
    RCC_GetClocksFreq                        0x08009edf   Thumb Code   140  stm32f4xx_rcc.o(.text)
    RCC_RTCCLKConfig                         0x08009f6b   Thumb Code    42  stm32f4xx_rcc.o(.text)
    RCC_RTCCLKCmd                            0x08009f95   Thumb Code     8  stm32f4xx_rcc.o(.text)
    RCC_BackupResetCmd                       0x08009f9d   Thumb Code     8  stm32f4xx_rcc.o(.text)
    RCC_I2SCLKConfig                         0x08009fa5   Thumb Code     6  stm32f4xx_rcc.o(.text)
    RCC_AHB1PeriphClockCmd                   0x08009fab   Thumb Code    20  stm32f4xx_rcc.o(.text)
    RCC_AHB2PeriphClockCmd                   0x08009fbf   Thumb Code    20  stm32f4xx_rcc.o(.text)
    RCC_AHB3PeriphClockCmd                   0x08009fd3   Thumb Code    20  stm32f4xx_rcc.o(.text)
    RCC_APB1PeriphClockCmd                   0x08009fe7   Thumb Code    20  stm32f4xx_rcc.o(.text)
    RCC_APB2PeriphClockCmd                   0x08009ffb   Thumb Code    20  stm32f4xx_rcc.o(.text)
    RCC_AHB1PeriphResetCmd                   0x0800a00f   Thumb Code    20  stm32f4xx_rcc.o(.text)
    RCC_AHB2PeriphResetCmd                   0x0800a023   Thumb Code    20  stm32f4xx_rcc.o(.text)
    RCC_AHB3PeriphResetCmd                   0x0800a037   Thumb Code    20  stm32f4xx_rcc.o(.text)
    RCC_APB1PeriphResetCmd                   0x0800a04b   Thumb Code    20  stm32f4xx_rcc.o(.text)
    RCC_APB2PeriphResetCmd                   0x0800a05f   Thumb Code    20  stm32f4xx_rcc.o(.text)
    RCC_AHB1PeriphClockLPModeCmd             0x0800a073   Thumb Code    20  stm32f4xx_rcc.o(.text)
    RCC_AHB2PeriphClockLPModeCmd             0x0800a087   Thumb Code    20  stm32f4xx_rcc.o(.text)
    RCC_AHB3PeriphClockLPModeCmd             0x0800a09b   Thumb Code    20  stm32f4xx_rcc.o(.text)
    RCC_APB1PeriphClockLPModeCmd             0x0800a0af   Thumb Code    20  stm32f4xx_rcc.o(.text)
    RCC_APB2PeriphClockLPModeCmd             0x0800a0c3   Thumb Code    20  stm32f4xx_rcc.o(.text)
    RCC_ITConfig                             0x0800a0d7   Thumb Code    20  stm32f4xx_rcc.o(.text)
    RCC_ClearFlag                            0x0800a0eb   Thumb Code    14  stm32f4xx_rcc.o(.text)
    RCC_GetITStatus                          0x0800a0f9   Thumb Code    18  stm32f4xx_rcc.o(.text)
    RCC_ClearITPendingBit                    0x0800a10b   Thumb Code     8  stm32f4xx_rcc.o(.text)
    SPI_I2S_DeInit                           0x0800a13d   Thumb Code    72  stm32f4xx_spi.o(.text)
    SPI_Init                                 0x0800a185   Thumb Code    56  stm32f4xx_spi.o(.text)
    I2S_Init                                 0x0800a1bd   Thumb Code   184  stm32f4xx_spi.o(.text)
    SPI_StructInit                           0x0800a275   Thumb Code    24  stm32f4xx_spi.o(.text)
    I2S_StructInit                           0x0800a28d   Thumb Code    18  stm32f4xx_spi.o(.text)
    SPI_Cmd                                  0x0800a29f   Thumb Code    20  stm32f4xx_spi.o(.text)
    I2S_Cmd                                  0x0800a2b3   Thumb Code    20  stm32f4xx_spi.o(.text)
    SPI_DataSizeConfig                       0x0800a2c7   Thumb Code    16  stm32f4xx_spi.o(.text)
    SPI_BiDirectionalLineConfig              0x0800a2d7   Thumb Code    22  stm32f4xx_spi.o(.text)
    SPI_NSSInternalSoftwareConfig            0x0800a2ed   Thumb Code    24  stm32f4xx_spi.o(.text)
    SPI_SSOutputCmd                          0x0800a305   Thumb Code    20  stm32f4xx_spi.o(.text)
    SPI_TIModeCmd                            0x0800a319   Thumb Code    20  stm32f4xx_spi.o(.text)
    I2S_FullDuplexConfig                     0x0800a32d   Thumb Code    62  stm32f4xx_spi.o(.text)
    SPI_I2S_ReceiveData                      0x0800a36b   Thumb Code     4  stm32f4xx_spi.o(.text)
    SPI_I2S_SendData                         0x0800a36f   Thumb Code     4  stm32f4xx_spi.o(.text)
    SPI_CalculateCRC                         0x0800a373   Thumb Code    20  stm32f4xx_spi.o(.text)
    SPI_TransmitCRC                          0x0800a387   Thumb Code    10  stm32f4xx_spi.o(.text)
    SPI_GetCRC                               0x0800a391   Thumb Code    12  stm32f4xx_spi.o(.text)
    SPI_GetCRCPolynomial                     0x0800a39d   Thumb Code     4  stm32f4xx_spi.o(.text)
    SPI_I2S_DMACmd                           0x0800a3a1   Thumb Code    16  stm32f4xx_spi.o(.text)
    SPI_I2S_ITConfig                         0x0800a3b1   Thumb Code    24  stm32f4xx_spi.o(.text)
    SPI_I2S_GetFlagStatus                    0x0800a3c9   Thumb Code    14  stm32f4xx_spi.o(.text)
    SPI_I2S_ClearFlag                        0x0800a3d7   Thumb Code     6  stm32f4xx_spi.o(.text)
    SPI_I2S_GetITStatus                      0x0800a3dd   Thumb Code    40  stm32f4xx_spi.o(.text)
    SPI_I2S_ClearITPendingBit                0x0800a405   Thumb Code    14  stm32f4xx_spi.o(.text)
    SYSCFG_DeInit                            0x0800a429   Thumb Code    24  stm32f4xx_syscfg.o(.text)
    SYSCFG_MemoryRemapConfig                 0x0800a441   Thumb Code     6  stm32f4xx_syscfg.o(.text)
    SYSCFG_EXTILineConfig                    0x0800a447   Thumb Code    36  stm32f4xx_syscfg.o(.text)
    SYSCFG_ETH_MediaInterfaceConfig          0x0800a46b   Thumb Code     6  stm32f4xx_syscfg.o(.text)
    SYSCFG_CompensationCellCmd               0x0800a471   Thumb Code     6  stm32f4xx_syscfg.o(.text)
    SYSCFG_GetCompensationCellStatus         0x0800a477   Thumb Code    16  stm32f4xx_syscfg.o(.text)
    TIM_DeInit                               0x0800a495   Thumb Code   284  stm32f4xx_tim.o(.text)
    TIM_TimeBaseInit                         0x0800a5b1   Thumb Code   100  stm32f4xx_tim.o(.text)
    TIM_TimeBaseStructInit                   0x0800a615   Thumb Code    18  stm32f4xx_tim.o(.text)
    TIM_PrescalerConfig                      0x0800a627   Thumb Code     6  stm32f4xx_tim.o(.text)
    TIM_CounterModeConfig                    0x0800a62d   Thumb Code    12  stm32f4xx_tim.o(.text)
    TIM_SetCounter                           0x0800a639   Thumb Code     4  stm32f4xx_tim.o(.text)
    TIM_SetAutoreload                        0x0800a63d   Thumb Code     4  stm32f4xx_tim.o(.text)
    TIM_GetCounter                           0x0800a641   Thumb Code     4  stm32f4xx_tim.o(.text)
    TIM_GetPrescaler                         0x0800a645   Thumb Code     4  stm32f4xx_tim.o(.text)
    TIM_UpdateDisableConfig                  0x0800a649   Thumb Code    20  stm32f4xx_tim.o(.text)
    TIM_UpdateRequestConfig                  0x0800a65d   Thumb Code    20  stm32f4xx_tim.o(.text)
    TIM_ARRPreloadConfig                     0x0800a671   Thumb Code    20  stm32f4xx_tim.o(.text)
    TIM_SelectOnePulseMode                   0x0800a685   Thumb Code    16  stm32f4xx_tim.o(.text)
    TIM_SetClockDivision                     0x0800a695   Thumb Code    16  stm32f4xx_tim.o(.text)
    TIM_Cmd                                  0x0800a6a5   Thumb Code    20  stm32f4xx_tim.o(.text)
    TIM_OC1Init                              0x0800a6b9   Thumb Code    88  stm32f4xx_tim.o(.text)
    TIM_OC2Init                              0x0800a711   Thumb Code   116  stm32f4xx_tim.o(.text)
    TIM_OC3Init                              0x0800a785   Thumb Code   112  stm32f4xx_tim.o(.text)
    TIM_OC4Init                              0x0800a7f5   Thumb Code    84  stm32f4xx_tim.o(.text)
    TIM_OCStructInit                         0x0800a849   Thumb Code    20  stm32f4xx_tim.o(.text)
    TIM_SelectOCxM                           0x0800a85d   Thumb Code   126  stm32f4xx_tim.o(.text)
    TIM_SetCompare1                          0x0800a8db   Thumb Code     4  stm32f4xx_tim.o(.text)
    TIM_SetCompare2                          0x0800a8df   Thumb Code     4  stm32f4xx_tim.o(.text)
    TIM_SetCompare3                          0x0800a8e3   Thumb Code     4  stm32f4xx_tim.o(.text)
    TIM_SetCompare4                          0x0800a8e7   Thumb Code     4  stm32f4xx_tim.o(.text)
    TIM_ForcedOC1Config                      0x0800a8eb   Thumb Code    12  stm32f4xx_tim.o(.text)
    TIM_ForcedOC2Config                      0x0800a8f7   Thumb Code    14  stm32f4xx_tim.o(.text)
    TIM_ForcedOC3Config                      0x0800a905   Thumb Code    12  stm32f4xx_tim.o(.text)
    TIM_ForcedOC4Config                      0x0800a911   Thumb Code    14  stm32f4xx_tim.o(.text)
    TIM_OC1PreloadConfig                     0x0800a91f   Thumb Code    12  stm32f4xx_tim.o(.text)
    TIM_OC2PreloadConfig                     0x0800a92b   Thumb Code    14  stm32f4xx_tim.o(.text)
    TIM_OC3PreloadConfig                     0x0800a939   Thumb Code    12  stm32f4xx_tim.o(.text)
    TIM_OC4PreloadConfig                     0x0800a945   Thumb Code    14  stm32f4xx_tim.o(.text)
    TIM_OC1FastConfig                        0x0800a953   Thumb Code    12  stm32f4xx_tim.o(.text)
    TIM_OC2FastConfig                        0x0800a95f   Thumb Code    14  stm32f4xx_tim.o(.text)
    TIM_OC3FastConfig                        0x0800a96d   Thumb Code    12  stm32f4xx_tim.o(.text)
    TIM_OC4FastConfig                        0x0800a979   Thumb Code    14  stm32f4xx_tim.o(.text)
    TIM_ClearOC1Ref                          0x0800a987   Thumb Code    12  stm32f4xx_tim.o(.text)
    TIM_ClearOC2Ref                          0x0800a993   Thumb Code    14  stm32f4xx_tim.o(.text)
    TIM_ClearOC3Ref                          0x0800a9a1   Thumb Code    12  stm32f4xx_tim.o(.text)
    TIM_ClearOC4Ref                          0x0800a9ad   Thumb Code    14  stm32f4xx_tim.o(.text)
    TIM_OC1PolarityConfig                    0x0800a9bb   Thumb Code    12  stm32f4xx_tim.o(.text)
    TIM_OC1NPolarityConfig                   0x0800a9c7   Thumb Code    12  stm32f4xx_tim.o(.text)
    TIM_OC2PolarityConfig                    0x0800a9d3   Thumb Code    14  stm32f4xx_tim.o(.text)
    TIM_OC2NPolarityConfig                   0x0800a9e1   Thumb Code    14  stm32f4xx_tim.o(.text)
    TIM_OC3PolarityConfig                    0x0800a9ef   Thumb Code    14  stm32f4xx_tim.o(.text)
    TIM_OC3NPolarityConfig                   0x0800a9fd   Thumb Code    14  stm32f4xx_tim.o(.text)
    TIM_OC4PolarityConfig                    0x0800aa0b   Thumb Code    14  stm32f4xx_tim.o(.text)
    TIM_CCxCmd                               0x0800aa19   Thumb Code    22  stm32f4xx_tim.o(.text)
    TIM_CCxNCmd                              0x0800aa2f   Thumb Code    22  stm32f4xx_tim.o(.text)
    TIM_SetIC4Prescaler                      0x0800aa45   Thumb Code    18  stm32f4xx_tim.o(.text)
    TIM_SetIC3Prescaler                      0x0800aa57   Thumb Code    16  stm32f4xx_tim.o(.text)
    TIM_SetIC2Prescaler                      0x0800aa67   Thumb Code    18  stm32f4xx_tim.o(.text)
    TIM_SetIC1Prescaler                      0x0800aaa7   Thumb Code    16  stm32f4xx_tim.o(.text)
    TIM_ICInit                               0x0800aab7   Thumb Code   152  stm32f4xx_tim.o(.text)
    TIM_ICStructInit                         0x0800ab4f   Thumb Code    16  stm32f4xx_tim.o(.text)
    TIM_PWMIConfig                           0x0800ab5f   Thumb Code   104  stm32f4xx_tim.o(.text)
    TIM_GetCapture1                          0x0800abc7   Thumb Code     4  stm32f4xx_tim.o(.text)
    TIM_GetCapture2                          0x0800abcb   Thumb Code     4  stm32f4xx_tim.o(.text)
    TIM_GetCapture3                          0x0800abcf   Thumb Code     4  stm32f4xx_tim.o(.text)
    TIM_GetCapture4                          0x0800abd3   Thumb Code     4  stm32f4xx_tim.o(.text)
    TIM_BDTRConfig                           0x0800abd7   Thumb Code    34  stm32f4xx_tim.o(.text)
    TIM_BDTRStructInit                       0x0800abf9   Thumb Code    18  stm32f4xx_tim.o(.text)
    TIM_CtrlPWMOutputs                       0x0800ac0b   Thumb Code    22  stm32f4xx_tim.o(.text)
    TIM_SelectCOM                            0x0800ac21   Thumb Code    20  stm32f4xx_tim.o(.text)
    TIM_CCPreloadControl                     0x0800ac35   Thumb Code    20  stm32f4xx_tim.o(.text)
    TIM_ITConfig                             0x0800ac49   Thumb Code    16  stm32f4xx_tim.o(.text)
    TIM_GenerateEvent                        0x0800ac59   Thumb Code     4  stm32f4xx_tim.o(.text)
    TIM_GetFlagStatus                        0x0800ac5d   Thumb Code    14  stm32f4xx_tim.o(.text)
    TIM_ClearFlag                            0x0800ac6b   Thumb Code     6  stm32f4xx_tim.o(.text)
    TIM_GetITStatus                          0x0800ac71   Thumb Code    22  stm32f4xx_tim.o(.text)
    TIM_ClearITPendingBit                    0x0800ac87   Thumb Code     6  stm32f4xx_tim.o(.text)
    TIM_DMAConfig                            0x0800ac8d   Thumb Code     8  stm32f4xx_tim.o(.text)
    TIM_DMACmd                               0x0800ac95   Thumb Code    16  stm32f4xx_tim.o(.text)
    TIM_SelectCCDMA                          0x0800aca5   Thumb Code    20  stm32f4xx_tim.o(.text)
    TIM_InternalClockConfig                  0x0800acb9   Thumb Code    10  stm32f4xx_tim.o(.text)
    TIM_SelectInputTrigger                   0x0800acc3   Thumb Code    12  stm32f4xx_tim.o(.text)
    TIM_ITRxExternalClockConfig              0x0800accf   Thumb Code    18  stm32f4xx_tim.o(.text)
    TIM_TIxExternalClockConfig               0x0800ace1   Thumb Code    44  stm32f4xx_tim.o(.text)
    TIM_ETRConfig                            0x0800ad0d   Thumb Code    22  stm32f4xx_tim.o(.text)
    TIM_ETRClockMode1Config                  0x0800ad23   Thumb Code    18  stm32f4xx_tim.o(.text)
    TIM_ETRClockMode2Config                  0x0800ad35   Thumb Code    18  stm32f4xx_tim.o(.text)
    TIM_SelectOutputTrigger                  0x0800ad47   Thumb Code    16  stm32f4xx_tim.o(.text)
    TIM_SelectSlaveMode                      0x0800ad57   Thumb Code    16  stm32f4xx_tim.o(.text)
    TIM_SelectMasterSlaveMode                0x0800ad67   Thumb Code    16  stm32f4xx_tim.o(.text)
    TIM_EncoderInterfaceConfig               0x0800ad77   Thumb Code    44  stm32f4xx_tim.o(.text)
    TIM_SelectHallSensor                     0x0800ada3   Thumb Code    20  stm32f4xx_tim.o(.text)
    TIM_RemapConfig                          0x0800adb7   Thumb Code     6  stm32f4xx_tim.o(.text)
    USART_DeInit                             0x0800ade9   Thumb Code   114  stm32f4xx_usart.o(.text)
    USART_Init                               0x0800ae5b   Thumb Code   174  stm32f4xx_usart.o(.text)
    USART_StructInit                         0x0800af09   Thumb Code    22  stm32f4xx_usart.o(.text)
    USART_ClockInit                          0x0800af1f   Thumb Code    28  stm32f4xx_usart.o(.text)
    USART_ClockStructInit                    0x0800af3b   Thumb Code    12  stm32f4xx_usart.o(.text)
    USART_Cmd                                0x0800af47   Thumb Code    20  stm32f4xx_usart.o(.text)
    USART_SetPrescaler                       0x0800af5b   Thumb Code    16  stm32f4xx_usart.o(.text)
    USART_OverSampling8Cmd                   0x0800af6b   Thumb Code    20  stm32f4xx_usart.o(.text)
    USART_OneBitMethodCmd                    0x0800af7f   Thumb Code    20  stm32f4xx_usart.o(.text)
    USART_SendData                           0x0800af93   Thumb Code     8  stm32f4xx_usart.o(.text)
    USART_ReceiveData                        0x0800af9b   Thumb Code     8  stm32f4xx_usart.o(.text)
    USART_SetAddress                         0x0800afa3   Thumb Code    16  stm32f4xx_usart.o(.text)
    USART_ReceiverWakeUpCmd                  0x0800afb3   Thumb Code    20  stm32f4xx_usart.o(.text)
    USART_WakeUpConfig                       0x0800afc7   Thumb Code    16  stm32f4xx_usart.o(.text)
    USART_LINBreakDetectLengthConfig         0x0800afd7   Thumb Code    16  stm32f4xx_usart.o(.text)
    USART_LINCmd                             0x0800afe7   Thumb Code    20  stm32f4xx_usart.o(.text)
    USART_SendBreak                          0x0800affb   Thumb Code    10  stm32f4xx_usart.o(.text)
    USART_HalfDuplexCmd                      0x0800b005   Thumb Code    20  stm32f4xx_usart.o(.text)
    USART_SetGuardTime                       0x0800b019   Thumb Code    16  stm32f4xx_usart.o(.text)
    USART_SmartCardCmd                       0x0800b029   Thumb Code    20  stm32f4xx_usart.o(.text)
    USART_SmartCardNACKCmd                   0x0800b03d   Thumb Code    20  stm32f4xx_usart.o(.text)
    USART_IrDAConfig                         0x0800b051   Thumb Code    16  stm32f4xx_usart.o(.text)
    USART_IrDACmd                            0x0800b061   Thumb Code    20  stm32f4xx_usart.o(.text)
    USART_DMACmd                             0x0800b075   Thumb Code    16  stm32f4xx_usart.o(.text)
    USART_ITConfig                           0x0800b085   Thumb Code    48  stm32f4xx_usart.o(.text)
    USART_GetFlagStatus                      0x0800b0b5   Thumb Code    14  stm32f4xx_usart.o(.text)
    USART_ClearFlag                          0x0800b0c3   Thumb Code     6  stm32f4xx_usart.o(.text)
    USART_GetITStatus                        0x0800b0c9   Thumb Code    62  stm32f4xx_usart.o(.text)
    USART_ClearITPendingBit                  0x0800b107   Thumb Code    12  stm32f4xx_usart.o(.text)
    __rt_ctype_table                         0x0800b12d   Thumb Code     4  ctype_o.o(.text)
    toupper                                  0x0800b135   Thumb Code    12  toupper.o(.text)
    bsearch                                  0x0800b141   Thumb Code    70  bsearch.o(.text)
    __aeabi_memcpy                           0x0800b187   Thumb Code    36  memcpya.o(.text)
    __aeabi_memcpy4                          0x0800b187   Thumb Code     0  memcpya.o(.text)
    __aeabi_memcpy8                          0x0800b187   Thumb Code     0  memcpya.o(.text)
    __aeabi_memset                           0x0800b1ab   Thumb Code    14  memseta.o(.text)
    __aeabi_memset4                          0x0800b1ab   Thumb Code     0  memseta.o(.text)
    __aeabi_memset8                          0x0800b1ab   Thumb Code     0  memseta.o(.text)
    __aeabi_memclr                           0x0800b1b9   Thumb Code     4  memseta.o(.text)
    __aeabi_memclr4                          0x0800b1b9   Thumb Code     0  memseta.o(.text)
    __aeabi_memclr8                          0x0800b1b9   Thumb Code     0  memseta.o(.text)
    _memset$wrapper                          0x0800b1bd   Thumb Code    20  memseta.o(.text)
    strcat                                   0x0800b1d1   Thumb Code    28  strcat.o(.text)
    strstr                                   0x0800b1ed   Thumb Code    44  strstr.o(.text)
    strncpy                                  0x0800b219   Thumb Code    24  strncpy.o(.text)
    strchr                                   0x0800b231   Thumb Code    18  strchr.o(.text)
    strlen                                   0x0800b243   Thumb Code    16  strlen.o(.text)
    strncasecmp                              0x0800b253   Thumb Code    50  strncasecmp.o(.text)
    atoi                                     0x0800b285   Thumb Code    26  atoi.o(.text)
    __aeabi_dadd                             0x0800b29f   Thumb Code   320  dadd.o(.text)
    __aeabi_dsub                             0x0800b3df   Thumb Code     6  dadd.o(.text)
    __aeabi_drsub                            0x0800b3e5   Thumb Code     6  dadd.o(.text)
    __aeabi_dmul                             0x0800b3eb   Thumb Code   224  dmul.o(.text)
    __aeabi_ddiv                             0x0800b4cb   Thumb Code   222  ddiv.o(.text)
    __aeabi_i2d                              0x0800b5a9   Thumb Code    34  dflti.o(.text)
    __aeabi_d2f                              0x0800b5cb   Thumb Code    56  d2f.o(.text)
    __aeabi_uidiv                            0x0800b603   Thumb Code     0  uidiv.o(.text)
    __aeabi_uidivmod                         0x0800b603   Thumb Code    44  uidiv.o(.text)
    __aeabi_llsl                             0x0800b62f   Thumb Code    30  llshl.o(.text)
    _ll_shift_l                              0x0800b62f   Thumb Code     0  llshl.o(.text)
    __aeabi_lasr                             0x0800b64d   Thumb Code    36  llsshr.o(.text)
    _ll_sshift_r                             0x0800b64d   Thumb Code     0  llsshr.o(.text)
    tolower                                  0x0800b671   Thumb Code    12  tolower.o(.text)
    strtol                                   0x0800b67d   Thumb Code   112  strtol.o(.text)
    __I$use$fp                               0x0800b6ed   Thumb Code     0  iusefp.o(.text)
    _float_round                             0x0800b6ed   Thumb Code    18  fepilogue.o(.text)
    _float_epilogue                          0x0800b6ff   Thumb Code    90  fepilogue.o(.text)
    _double_round                            0x0800b759   Thumb Code    26  depilogue.o(.text)
    _double_epilogue                         0x0800b773   Thumb Code   164  depilogue.o(.text)
    __scatterload                            0x0800b819   Thumb Code    28  init.o(.text)
    __scatterload_rt2                        0x0800b819   Thumb Code     0  init.o(.text)
    __aeabi_llsr                             0x0800b83d   Thumb Code    32  llushr.o(.text)
    _ll_ushift_r                             0x0800b83d   Thumb Code     0  llushr.o(.text)
    _strtoul                                 0x0800b85d   Thumb Code   158  _strtoul.o(.text)
    _chval                                   0x0800b8fb   Thumb Code    28  _chval.o(.text)
    __decompress                             0x0800b917   Thumb Code     0  __dczerorl2.o(.text)
    __decompress1                            0x0800b917   Thumb Code    92  __dczerorl2.o(.text)
    __0printf$3                              0x0800b975   Thumb Code    22  printf3.o(i.__0printf$3)
    __1printf$3                              0x0800b975   Thumb Code     0  printf3.o(i.__0printf$3)
    __2printf                                0x0800b975   Thumb Code     0  printf3.o(i.__0printf$3)
    __ARM_fpclassifyf                        0x0800b995   Thumb Code    38  fpclassifyf.o(i.__ARM_fpclassifyf)
    __aeabi_errno_addr                       0x0800b9bd   Thumb Code     4  errno.o(i.__aeabi_errno_addr)
    __rt_errno_addr                          0x0800b9bd   Thumb Code     0  errno.o(i.__aeabi_errno_addr)
    __hardfp_atan2f                          0x0800b9c5   Thumb Code   486  atan2f.o(i.__hardfp_atan2f)
    __hardfp_cosf                            0x0800bc0d   Thumb Code   286  cosf.o(i.__hardfp_cosf)
    __hardfp_fabs                            0x0800bd6d   Thumb Code    20  fabs.o(i.__hardfp_fabs)
    __hardfp_logf                            0x0800bd81   Thumb Code   320  logf.o(i.__hardfp_logf)
    __mathlib_logf                           0x0800bd81   Thumb Code     0  logf.o(i.__hardfp_logf)
    __hardfp_sinf                            0x0800bef1   Thumb Code   314  sinf.o(i.__hardfp_sinf)
    __hardfp_sqrtf                           0x0800c069   Thumb Code    58  sqrtf.o(i.__hardfp_sqrtf)
    __mathlib_flt_underflow                  0x0800c0a5   Thumb Code    10  funder.o(i.__mathlib_flt_underflow)
    __mathlib_rredf2                         0x0800c0b5   Thumb Code   294  rredf.o(i.__mathlib_rredf2)
    __scatterload_copy                       0x0800c1f5   Thumb Code    14  handlers.o(i.__scatterload_copy)
    __scatterload_null                       0x0800c203   Thumb Code     2  handlers.o(i.__scatterload_null)
    __scatterload_zeroinit                   0x0800c205   Thumb Code    14  handlers.o(i.__scatterload_zeroinit)
    __set_errno                              0x0800c215   Thumb Code     6  errno.o(i.__set_errno)
    mixerNames                               0x0800c3d4   Data          76  cli.o(.constdata)
    featureNames                             0x0800c420   Data          60  cli.o(.constdata)
    sensorNames                              0x0800c45c   Data          24  cli.o(.constdata)
    accNames                                 0x0800c474   Data          20  cli.o(.constdata)
    cmdTable                                 0x0800c488   Data         168  cli.o(.constdata)
    valueTable                               0x0800c530   Data        2120  cli.o(.constdata)
    rcChannelLetters                         0x0800cd78   Data           9  config.o(.constdata)
    init_speed                               0x0800cd90   Data          20  gps.o(.constdata)
    mixers                                   0x0800d240   Data         152  mixer.o(.constdata)
    __ctype_table                            0x0800d3d4   Data         129  ctype_o.o(.constdata)
    Region$$Table$$Base                      0x0800ddc8   Number         0  anon$$obj.o(Region$$Table)
    Region$$Table$$Limit                     0x0800dde8   Number         0  anon$$obj.o(Region$$Table)
    acc_25deg                                0x20000098   Data           2  imu.o(.data)
    BaroPID                                  0x2000009a   Data           2  imu.o(.data)
    errorAltitudeI                           0x2000009c   Data           2  imu.o(.data)
    vario                                    0x2000009e   Data           2  imu.o(.data)
    baroTemperature                          0x200000a8   Data           4  imu.o(.data)
    baroPressureSum                          0x200000ac   Data           4  imu.o(.data)
    BaroAlt                                  0x200000b0   Data           4  imu.o(.data)
    magneticDeclination                      0x200000b4   Data           4  imu.o(.data)
    angle                                    0x200000b8   Data           4  imu.o(.data)
    EstAlt                                   0x200000d4   Data           4  imu.o(.data)
    AltHold                                  0x200000d8   Data           4  imu.o(.data)
    accVelScale                              0x200000dc   Data           4  imu.o(.data)
    gyroData                                 0x200000e4   Data           6  imu.o(.data)
    gyroADC                                  0x200000f6   Data           6  imu.o(.data)
    accADC                                   0x200000fc   Data           6  imu.o(.data)
    accSmooth                                0x20000102   Data           6  imu.o(.data)
    magADC                                   0x20000108   Data           6  imu.o(.data)
    baroPressure                             0x20000110   Data           4  imu.o(.data)
    gyroZero                                 0x20000114   Data           6  imu.o(.data)
    sonarAlt                                 0x2000011a   Data           2  imu.o(.data)
    useServo                                 0x2000011d   Data           1  mixer.o(.data)
    servo                                    0x2000011e   Data          16  mixer.o(.data)
    toggleBeep                               0x20000130   Data           1  mw.o(.data)
    nav_mode                                 0x20000131   Data           1  mw.o(.data)
    vbat                                     0x2000013a   Data           1  mw.o(.data)
    GPS_numSat                               0x2000013b   Data           1  mw.o(.data)
    cycleTime                                0x2000013c   Data           2  mw.o(.data)
    failsafeCnt                              0x2000013e   Data           2  mw.o(.data)
    failsafeEvents                           0x20000140   Data           2  mw.o(.data)
    InflightcalibratingA                     0x20000142   Data           2  mw.o(.data)
    AccInflightCalibrationMeasurementDone    0x20000144   Data           2  mw.o(.data)
    AccInflightCalibrationSavetoEEProm       0x20000146   Data           2  mw.o(.data)
    AccInflightCalibrationActive             0x20000148   Data           2  mw.o(.data)
    headFreeModeHold                         0x2000014e   Data           2  mw.o(.data)
    telemTemperature1                        0x20000150   Data           2  mw.o(.data)
    AccInflightCalibrationArmed              0x20000152   Data           2  mw.o(.data)
    batteryWarningVoltage                    0x20000154   Data           2  mw.o(.data)
    dynP8                                    0x20000156   Data           3  mw.o(.data)
    dynI8                                    0x20000159   Data           3  mw.o(.data)
    dynD8                                    0x2000015c   Data           3  mw.o(.data)
    currentTime                              0x20000160   Data           4  mw.o(.data)
    previousTime                             0x20000164   Data           4  mw.o(.data)
    rcReadRawFunc                            0x20000168   Data           4  mw.o(.data)
    pid_controller                           0x2000016c   Data           4  mw.o(.data)
    GPS_angle                                0x20000170   Data           4  mw.o(.data)
    nav                                      0x2000018c   Data           4  mw.o(.data)
    nav_rated                                0x20000190   Data           4  mw.o(.data)
    axisPID                                  0x2000019a   Data           6  mw.o(.data)
    rcCommand                                0x200001a8   Data           8  mw.o(.data)
    GPS_coord                                0x200001b0   Data           8  mw.o(.data)
    GPS_home                                 0x200001b8   Data           8  mw.o(.data)
    GPS_hold                                 0x200001c0   Data           8  mw.o(.data)
    rcData                                   0x200001c8   Data          16  mw.o(.data)
    annex650_overrun_count                   0x200001d8   Data           2  mw.o(.data)
    GPS_update                               0x200001da   Data           1  mw.o(.data)
    GPS_ground_course                        0x200001dc   Data           2  mw.o(.data)
    GPS_Present                              0x200001de   Data           1  mw.o(.data)
    batteryCellCount                         0x200001df   Data           1  mw.o(.data)
    debug                                    0x200001e0   Data           8  mw.o(.data)
    rssi                                     0x200001e8   Data           2  mw.o(.data)
    GPS_distanceToHome                       0x200001ea   Data           2  mw.o(.data)
    GPS_directionToHome                      0x200001ec   Data           2  mw.o(.data)
    GPS_altitude                             0x200001ee   Data           2  mw.o(.data)
    GPS_speed                                0x200001f0   Data           2  mw.o(.data)
    GPS_numCh                                0x200001f2   Data           1  mw.o(.data)
    accHardware                              0x200001f4   Data           1  sensors.o(.data)
    calibratingA                             0x200001f6   Data           2  sensors.o(.data)
    calibratingG                             0x200001f8   Data           2  sensors.o(.data)
    acc_1G                                   0x200001fa   Data           2  sensors.o(.data)
    calibratingB                             0x20000238   Data           2  sensors.o(.data)
    heading                                  0x2000023a   Data           2  sensors.o(.data)
    magHold                                  0x2000023c   Data           2  sensors.o(.data)
    cliMode                                  0x20000242   Data           1  serial.o(.data)
    boxes                                    0x2000024c   Data         252  serial.o(.data)
    acc_samples                              0x20000365   Data           1  drv_adxl345.o(.data)
    txDMAEmpty                               0x20000518   Data           1  drv_uart.o(.data)
    uart2RxOnly                              0x20000519   Data           1  drv_uart.o(.data)
    uart3RxOnly                              0x2000051a   Data           1  drv_uart.o(.data)
    rxDMAPos                                 0x2000051c   Data           4  drv_uart.o(.data)
    txBufferTail                             0x20000520   Data           4  drv_uart.o(.data)
    txBufferHead                             0x20000524   Data           4  drv_uart.o(.data)
    uart2Callback                            0x20000528   Data           4  drv_uart.o(.data)
    tx2BufferTail                            0x2000052c   Data           4  drv_uart.o(.data)
    tx2BufferHead                            0x20000530   Data           4  drv_uart.o(.data)
    uart3Callback                            0x20000534   Data           4  drv_uart.o(.data)
    tx3BufferTail                            0x20000538   Data           4  drv_uart.o(.data)
    tx3BufferHead                            0x2000053c   Data           4  drv_uart.o(.data)
    SystemCoreClock                          0x20000540   Data           4  system_stm32f4xx.o(.data)
    AHBPrescTable                            0x20000544   Data          16  system_stm32f4xx.o(.data)
    __stdout                                 0x20000564   Data           4  stdout.o(.data)
    mcfg                                     0x2000059c   Data         768  config.o(.bss)
    cfg                                      0x2000089c   Data         160  config.o(.bss)
    EstG                                     0x20000afc   Data          12  imu.o(.bss)
    motor                                    0x20000b08   Data          24  mixer.o(.bss)
    f                                        0x20000c88   Data          16  mw.o(.bss)
    lookupPitchRollRC                        0x20000c98   Data          12  mw.o(.bss)
    lookupThrottleRC                         0x20000ca4   Data          22  mw.o(.bss)
    rcOptions                                0x20000cba   Data          20  mw.o(.bss)
    GPS_svinfo_chn                           0x20000cce   Data          16  mw.o(.bss)
    GPS_svinfo_svid                          0x20000cde   Data          16  mw.o(.bss)
    GPS_svinfo_quality                       0x20000cee   Data          16  mw.o(.bss)
    GPS_svinfo_cno                           0x20000cfe   Data          16  mw.o(.bss)
    acc                                      0x20000e30   Data          20  sensors.o(.bss)
    gyro                                     0x20000e44   Data          20  sensors.o(.bss)
    baro                                     0x20000e58   Data          24  sensors.o(.bss)
    spekFrame                                0x20000ee0   Data          16  spektrum.o(.bss)
    rxBuffer                                 0x200010f0   Data         512  drv_uart.o(.bss)
    txBuffer                                 0x200012f0   Data         512  drv_uart.o(.bss)
    tx2Buffer                                0x200014f0   Data         128  drv_uart.o(.bss)
    tx3Buffer                                0x20001570   Data         128  drv_uart.o(.bss)
    __initial_sp                             0x200019f0   Data           0  startup_stm32f4xx.o(STACK)



==============================================================================

Memory Map of the image

  Image Entry point : 0x08000189

  Load Region LR_IROM1 (Base: 0x08000000, Size: 0x0000e354, Max: 0x00100000, ABSOLUTE, COMPRESSED[0x0000df50])

    Execution Region ER_IROM1 (Base: 0x08000000, Size: 0x0000dde8, Max: 0x00100000, ABSOLUTE)

    Base Addr    Size         Type   Attr      Idx    E Section Name        Object

    0x08000000   0x00000188   Data   RO            3    RESET               startup_stm32f4xx.o
    0x08000188   0x00000000   Code   RO         1370  * .ARM.Collect$$$$00000000  mc_w.l(entry.o)
    0x08000188   0x00000004   Code   RO         1703    .ARM.Collect$$$$00000001  mc_w.l(entry2.o)
    0x0800018c   0x00000004   Code   RO         1706    .ARM.Collect$$$$00000004  mc_w.l(entry5.o)
    0x08000190   0x00000000   Code   RO         1708    .ARM.Collect$$$$00000008  mc_w.l(entry7b.o)
    0x08000190   0x00000008   Code   RO         1709    .ARM.Collect$$$$00000009  mc_w.l(entry8.o)
    0x08000198   0x00000004   Code   RO         1704    .ARM.Collect$$$$00002712  mc_w.l(entry2.o)
    0x0800019c   0x00000024   Code   RO            4    .text               startup_stm32f4xx.o
    0x080001c0   0x0000021c   Code   RO           11    .text               buzzer.o
    0x080003dc   0x00001394   Code   RO          172    .text               cli.o
    0x08001770   0x00000594   Code   RO          195    .text               config.o
    0x08001d04   0x00000fe8   Code   RO          221    .text               gps.o
    0x08002cec   0x000007c4   Code   RO          249    .text               imu.o
    0x080034b0   0x0000020c   Code   RO          277    .text               main.o
    0x080036bc   0x000005d0   Code   RO          294    .text               mixer.o
    0x08003c8c   0x000011a8   Code   RO          332    .text               mw.o
    0x08004e34   0x00000840   Code   RO          383    .text               sensors.o
    0x08005674   0x00000a3c   Code   RO          411    .text               serial.o
    0x080060b0   0x000000f4   Code   RO          435    .text               spektrum.o
    0x080061a4   0x00000338   Code   RO          455    .text               telemetry.o
    0x080064dc   0x00000118   Code   RO          474    .text               drv_adc.o
    0x080065f4   0x00000164   Code   RO          495    .text               drv_adxl345.o
    0x08006758   0x0000010c   Code   RO          515    .text               drv_hcsr04.o
    0x08006864   0x000002a8   Code   RO          537    .text               drv_hmc5883l.o
    0x08006b0c   0x00000514   Code   RO          555    .text               drv_i2c.o
    0x08007020   0x000000f8   Code   RO          583    .text               drv_l3g4200d.o
    0x08007118   0x00000108   Code   RO          601    .text               drv_ledring.o
    0x08007220   0x00000124   Code   RO          618    .text               drv_mma845x.o
    0x08007344   0x0000014c   Code   RO          637    .text               drv_mpu3050.o
    0x08007490   0x0000025c   Code   RO          655    .text               drv_mpu6000.o
    0x080076ec   0x00000278   Code   RO          674    .text               drv_ms5611.o
    0x08007964   0x00000828   Code   RO          693    .text               drv_pwm.o
    0x0800818c   0x0000021c   Code   RO          720    .text               drv_spi.o
    0x080083a8   0x000001dc   Code   RO          736    .text               drv_system.o
    0x08008584   0x000005c8   Code   RO          759    .text               drv_uart.o
    0x08008b4c   0x0000016c   Code   RO          780    .text               system_stm32f4xx.o
    0x08008cb8   0x000000b0   Code   RO          802    .text               misc.o
    0x08008d68   0x00000354   Code   RO          818    .text               stm32f4xx_adc.o
    0x080090bc   0x00000320   Code   RO          978    .text               stm32f4xx_dma.o
    0x080093dc   0x000000ec   Code   RO          994    .text               stm32f4xx_exti.o
    0x080094c8   0x00000390   Code   RO         1010    .text               stm32f4xx_flash.o
    0x08009858   0x000001e8   Code   RO         1043    .text               stm32f4xx_gpio.o
    0x08009a40   0x00000324   Code   RO         1107    .text               stm32f4xx_i2c.o
    0x08009d64   0x000003d8   Code   RO         1155    .text               stm32f4xx_rcc.o
    0x0800a13c   0x000002ec   Code   RO         1222    .text               stm32f4xx_spi.o
    0x0800a428   0x0000006c   Code   RO         1238    .text               stm32f4xx_syscfg.o
    0x0800a494   0x00000954   Code   RO         1254    .text               stm32f4xx_tim.o
    0x0800ade8   0x00000344   Code   RO         1271    .text               stm32f4xx_usart.o
    0x0800b12c   0x00000008   Code   RO         1373    .text               mc_w.l(ctype_o.o)
    0x0800b134   0x0000000c   Code   RO         1401    .text               mc_w.l(toupper.o)
    0x0800b140   0x00000046   Code   RO         1403    .text               mc_w.l(bsearch.o)
    0x0800b186   0x00000024   Code   RO         1405    .text               mc_w.l(memcpya.o)
    0x0800b1aa   0x00000026   Code   RO         1407    .text               mc_w.l(memseta.o)
    0x0800b1d0   0x0000001c   Code   RO         1409    .text               mc_w.l(strcat.o)
    0x0800b1ec   0x0000002c   Code   RO         1411    .text               mc_w.l(strstr.o)
    0x0800b218   0x00000018   Code   RO         1413    .text               mc_w.l(strncpy.o)
    0x0800b230   0x00000012   Code   RO         1415    .text               mc_w.l(strchr.o)
    0x0800b242   0x00000010   Code   RO         1417    .text               mc_w.l(strlen.o)
    0x0800b252   0x00000032   Code   RO         1421    .text               mc_w.l(strncasecmp.o)
    0x0800b284   0x0000001a   Code   RO         1684    .text               mc_w.l(atoi.o)
    0x0800b29e   0x0000014c   Code   RO         1686    .text               mf_w.l(dadd.o)
    0x0800b3ea   0x000000e0   Code   RO         1688    .text               mf_w.l(dmul.o)
    0x0800b4ca   0x000000de   Code   RO         1690    .text               mf_w.l(ddiv.o)
    0x0800b5a8   0x00000022   Code   RO         1692    .text               mf_w.l(dflti.o)
    0x0800b5ca   0x00000038   Code   RO         1694    .text               mf_w.l(d2f.o)
    0x0800b602   0x0000002c   Code   RO         1711    .text               mc_w.l(uidiv.o)
    0x0800b62e   0x0000001e   Code   RO         1715    .text               mc_w.l(llshl.o)
    0x0800b64c   0x00000024   Code   RO         1717    .text               mc_w.l(llsshr.o)
    0x0800b670   0x0000000c   Code   RO         1719    .text               mc_w.l(tolower.o)
    0x0800b67c   0x00000070   Code   RO         1728    .text               mc_w.l(strtol.o)
    0x0800b6ec   0x00000000   Code   RO         1730    .text               mc_w.l(iusefp.o)
    0x0800b6ec   0x0000006c   Code   RO         1731    .text               mf_w.l(fepilogue.o)
    0x0800b758   0x000000be   Code   RO         1733    .text               mf_w.l(depilogue.o)
    0x0800b816   0x00000002   PAD
    0x0800b818   0x00000024   Code   RO         1739    .text               mc_w.l(init.o)
    0x0800b83c   0x00000020   Code   RO         1741    .text               mc_w.l(llushr.o)
    0x0800b85c   0x0000009e   Code   RO         1743    .text               mc_w.l(_strtoul.o)
    0x0800b8fa   0x0000001c   Code   RO         1745    .text               mc_w.l(_chval.o)
    0x0800b916   0x0000005c   Code   RO         1755    .text               mc_w.l(__dczerorl2.o)
    0x0800b972   0x00000002   PAD
    0x0800b974   0x00000020   Code   RO         1512    i.__0printf$3       mc_w.l(printf3.o)
    0x0800b994   0x00000026   Code   RO         1696    i.__ARM_fpclassifyf  m_wm.l(fpclassifyf.o)
    0x0800b9ba   0x00000002   PAD
    0x0800b9bc   0x00000008   Code   RO         1721    i.__aeabi_errno_addr  mc_w.l(errno.o)
    0x0800b9c4   0x00000248   Code   RO         1302    i.__hardfp_atan2f   m_wm.l(atan2f.o)
    0x0800bc0c   0x00000160   Code   RO         1314    i.__hardfp_cosf     m_wm.l(cosf.o)
    0x0800bd6c   0x00000014   Code   RO         1326    i.__hardfp_fabs     m_wm.l(fabs.o)
    0x0800bd80   0x00000170   Code   RO         1332    i.__hardfp_logf     m_wm.l(logf.o)
    0x0800bef0   0x00000178   Code   RO         1346    i.__hardfp_sinf     m_wm.l(sinf.o)
    0x0800c068   0x0000003a   Code   RO         1358    i.__hardfp_sqrtf    m_wm.l(sqrtf.o)
    0x0800c0a2   0x00000002   PAD
    0x0800c0a4   0x00000010   Code   RO         1698    i.__mathlib_flt_underflow  m_wm.l(funder.o)
    0x0800c0b4   0x00000140   Code   RO         1700    i.__mathlib_rredf2  m_wm.l(rredf.o)
    0x0800c1f4   0x0000000e   Code   RO         1749    i.__scatterload_copy  mc_w.l(handlers.o)
    0x0800c202   0x00000002   Code   RO         1750    i.__scatterload_null  mc_w.l(handlers.o)
    0x0800c204   0x0000000e   Code   RO         1751    i.__scatterload_zeroinit  mc_w.l(handlers.o)
    0x0800c212   0x00000002   PAD
    0x0800c214   0x0000000c   Code   RO         1723    i.__set_errno       mc_w.l(errno.o)
    0x0800c220   0x000001b4   Code   RO         1519    i._printf_core      mc_w.l(printf3.o)
    0x0800c3d4   0x000009a4   Data   RO          174    .constdata          cli.o
    0x0800cd78   0x00000015   Data   RO          197    .constdata          config.o
    0x0800cd8d   0x00000003   PAD
    0x0800cd90   0x000000c0   Data   RO          223    .constdata          gps.o
    0x0800ce50   0x00000030   Data   RO          296    .constdata          mixer.o
    0x0800ce80   0x00000040   Data   RO          297    .constdata          mixer.o
    0x0800cec0   0x00000040   Data   RO          298    .constdata          mixer.o
    0x0800cf00   0x00000020   Data   RO          299    .constdata          mixer.o
    0x0800cf20   0x00000060   Data   RO          300    .constdata          mixer.o
    0x0800cf80   0x00000060   Data   RO          301    .constdata          mixer.o
    0x0800cfe0   0x00000040   Data   RO          302    .constdata          mixer.o
    0x0800d020   0x00000060   Data   RO          303    .constdata          mixer.o
    0x0800d080   0x00000080   Data   RO          304    .constdata          mixer.o
    0x0800d100   0x00000080   Data   RO          305    .constdata          mixer.o
    0x0800d180   0x00000080   Data   RO          306    .constdata          mixer.o
    0x0800d200   0x00000040   Data   RO          307    .constdata          mixer.o
    0x0800d240   0x00000098   Data   RO          308    .constdata          mixer.o
    0x0800d2d8   0x00000030   Data   RO          414    .constdata          serial.o
    0x0800d308   0x0000001c   Data   RO          695    .constdata          drv_pwm.o
    0x0800d324   0x0000002a   Data   RO          696    .constdata          drv_pwm.o
    0x0800d34e   0x0000001c   Data   RO          697    .constdata          drv_pwm.o
    0x0800d36a   0x0000002a   Data   RO          698    .constdata          drv_pwm.o
    0x0800d394   0x00000040   Data   RO         1335    .constdata          m_wm.l(logf.o)
    0x0800d3d4   0x00000081   Data   RO         1374    .constdata          mc_w.l(ctype_o.o)
    0x0800d455   0x00000003   PAD
    0x0800d458   0x00000004   Data   RO         1375    .constdata          mc_w.l(ctype_o.o)
    0x0800d45c   0x00000020   Data   RO         1701    .constdata          m_wm.l(rredf.o)
    0x0800d47c   0x000007cc   Data   RO          175    .conststring        cli.o
    0x0800dc48   0x000000da   Data   RO          224    .conststring        gps.o
    0x0800dd22   0x000000a4   Data   RO          415    .conststring        serial.o
    0x0800ddc6   0x00000002   PAD
    0x0800ddc8   0x00000020   Data   RO         1747    Region$$Table       anon$$obj.o


    Execution Region RW_IRAM1 (Base: 0x20000000, Size: 0x000019f0, Max: 0x00020000, ABSOLUTE, COMPRESSED[0x00000168])

    Base Addr    Size         Type   Attr      Idx    E Section Name        Object

    0x20000000   0x0000000c   Data   RW           12    .data               buzzer.o
    0x2000000c   0x00000004   Data   RW          176    .data               cli.o
    0x20000010   0x00000008   Data   RW          198    .data               config.o
    0x20000018   0x00000080   Data   RW          225    .data               gps.o
    0x20000098   0x00000076   Data   RW          251    .data               imu.o
    0x2000010e   0x00000002   PAD
    0x20000110   0x00000004   Data   RW          252    .data               imu.o
    0x20000114   0x00000006   Data   RW          253    .data               imu.o
    0x2000011a   0x00000002   Data   RW          254    .data               imu.o
    0x2000011c   0x00000012   Data   RW          309    .data               mixer.o
    0x2000012e   0x00000002   PAD
    0x20000130   0x000000a8   Data   RW          338    .data               mw.o
    0x200001d8   0x00000002   Data   RW          339    .data               mw.o
    0x200001da   0x00000001   Data   RW          340    .data               mw.o
    0x200001db   0x00000001   PAD
    0x200001dc   0x00000002   Data   RW          341    .data               mw.o
    0x200001de   0x00000001   Data   RW          342    .data               mw.o
    0x200001df   0x00000001   Data   RW          344    .data               mw.o
    0x200001e0   0x00000008   Data   RW          345    .data               mw.o
    0x200001e8   0x00000002   Data   RW          346    .data               mw.o
    0x200001ea   0x00000002   Data   RW          347    .data               mw.o
    0x200001ec   0x00000002   Data   RW          348    .data               mw.o
    0x200001ee   0x00000002   Data   RW          349    .data               mw.o
    0x200001f0   0x00000002   Data   RW          350    .data               mw.o
    0x200001f2   0x00000001   Data   RW          351    .data               mw.o
    0x200001f3   0x00000001   PAD
    0x200001f4   0x00000044   Data   RW          385    .data               sensors.o
    0x20000238   0x00000002   Data   RW          386    .data               sensors.o
    0x2000023a   0x00000002   Data   RW          387    .data               sensors.o
    0x2000023c   0x00000002   Data   RW          388    .data               sensors.o
    0x2000023e   0x00000002   PAD
    0x20000240   0x00000108   Data   RW          416    .data               serial.o
    0x20000348   0x00000010   Data   RW          437    .data               spektrum.o
    0x20000358   0x00000008   Data   RW          456    .data               telemetry.o
    0x20000360   0x00000004   Data   RW          475    .data               drv_adc.o
    0x20000364   0x00000002   Data   RW          496    .data               drv_adxl345.o
    0x20000366   0x00000002   PAD
    0x20000368   0x00000018   Data   RW          516    .data               drv_hcsr04.o
    0x20000380   0x00000003   Data   RW          538    .data               drv_hmc5883l.o
    0x20000383   0x00000001   PAD
    0x20000384   0x00000018   Data   RW          556    .data               drv_i2c.o
    0x2000039c   0x00000001   Data   RW          584    .data               drv_l3g4200d.o
    0x2000039d   0x00000001   Data   RW          602    .data               drv_ledring.o
    0x2000039e   0x00000001   Data   RW          619    .data               drv_mma845x.o
    0x2000039f   0x00000001   Data   RW          638    .data               drv_mpu3050.o
    0x200003a0   0x00000002   Data   RW          656    .data               drv_mpu6000.o
    0x200003a2   0x00000002   PAD
    0x200003a4   0x0000000c   Data   RW          676    .data               drv_ms5611.o
    0x200003b0   0x00000160   Data   RW          699    .data               drv_pwm.o
    0x20000510   0x00000008   Data   RW          737    .data               drv_system.o
    0x20000518   0x00000028   Data   RW          761    .data               drv_uart.o
    0x20000540   0x00000014   Data   RW          781    .data               system_stm32f4xx.o
    0x20000554   0x00000010   Data   RW         1156    .data               stm32f4xx_rcc.o
    0x20000564   0x00000004   Data   RW         1710    .data               mc_w.l(stdout.o)
    0x20000568   0x00000004   Data   RW         1724    .data               mc_w.l(errno.o)
    0x2000056c   0x00000030   Zero   RW          173    .bss                cli.o
    0x2000059c   0x000003a0   Zero   RW          196    .bss                config.o
    0x2000093c   0x000001a8   Zero   RW          222    .bss                gps.o
    0x20000ae4   0x00000024   Zero   RW          250    .bss                imu.o
    0x20000b08   0x000000d8   Zero   RW          295    .bss                mixer.o
    0x20000be0   0x000000ee   Zero   RW          333    .bss                mw.o
    0x20000cce   0x00000010   Zero   RW          334    .bss                mw.o
    0x20000cde   0x00000010   Zero   RW          335    .bss                mw.o
    0x20000cee   0x00000010   Zero   RW          336    .bss                mw.o
    0x20000cfe   0x00000010   Zero   RW          337    .bss                mw.o
    0x20000d0e   0x00000002   PAD
    0x20000d10   0x00000160   Zero   RW          384    .bss                sensors.o
    0x20000e70   0x00000054   Zero   RW          412    .bss                serial.o
    0x20000ec4   0x0000002c   Zero   RW          436    .bss                spektrum.o
    0x20000ef0   0x00000010   Zero   RW          675    .bss                drv_ms5611.o
    0x20000f00   0x000001f0   Zero   RW          694    .bss                drv_pwm.o
    0x200010f0   0x00000500   Zero   RW          760    .bss                drv_uart.o
    0x200015f0   0x00000400   Zero   RW            1    STACK               startup_stm32f4xx.o


==============================================================================

Image component sizes


      Code (inc. data)   RO Data    RW Data    ZI Data      Debug   Object Name

       540         28          0         12          0     315489   buzzer.o
      5012       1528       4464          4         48      10413   cli.o
      1428         72         21          8        928      12785   config.o
       280         18          0          4          0       1500   drv_adc.o
       356         20          0          2          0       2379   drv_adxl345.o
       268          8          0         24          0      19958   drv_hcsr04.o
       680         34          0          3          0       2423   drv_hmc5883l.o
      1300         24          0         24          0       4289   drv_i2c.o
       248         20          0          1          0       1865   drv_l3g4200d.o
       264         18          0          1          0        918   drv_ledring.o
       292         26          0          1          0       2477   drv_mma845x.o
       332         26          0          1          0       2040   drv_mpu3050.o
       604         44          0          2          0       7745   drv_mpu6000.o
       632         34          0         12         16       3219   drv_ms5611.o
      2088         88        140        352        496       6822   drv_pwm.o
       540         20          0          0          0       1949   drv_spi.o
       476         48          0          8          0      20960   drv_system.o
      1480         60          0         40       1280       6616   drv_uart.o
      4072        352        410        128        424      13828   gps.o
      1988        102          0        130         36       5297   imu.o
       524         54          0          0          0       1119   main.o
       176         16          0          0          0       1905   misc.o
      1488         56       1160         18        216      10517   mixer.o
      4520        202          0        194        302      16012   mw.o
      2112        138          0         74        352       6453   sensors.o
      2620        240        212        264         84       7084   serial.o
       244         20          0         16         44       2055   spektrum.o
        36          8        392          0       1024        764   startup_stm32f4xx.o
       852         30          0          0          0      10530   stm32f4xx_adc.o
       800         32          0          0          0       6885   stm32f4xx_dma.o
       236          8          0          0          0       2491   stm32f4xx_exti.o
       912         20          0          0          0       7423   stm32f4xx_flash.o
       488         36          0          0          0       4393   stm32f4xx_gpio.o
       804         20          0          0          0       8379   stm32f4xx_i2c.o
       984         42          0         16          0      11335   stm32f4xx_rcc.o
       748         22          0          0          0       7205   stm32f4xx_spi.o
       108         14          0          0          0       1715   stm32f4xx_syscfg.o
      2388         52          0          0          0      22890   stm32f4xx_tim.o
       836         26          0          0          0       8180   stm32f4xx_usart.o
       364         38          0         20          0       1919   system_stm32f4xx.o
       824         50          0          8          0       3673   telemetry.o

    ----------------------------------------------------------------------
     44944       3694       6836       1380       5252     585899   Object Totals
         0          0         32          0          0          0   (incl. Generated)
         0          0          5         13          2          0   (incl. Padding)

    ----------------------------------------------------------------------

      Code (inc. data)   RO Data    RW Data    ZI Data      Debug   Library Member Name

       584         98          0          0          0        176   atan2f.o
       352         66          0          0          0        140   cosf.o
        20          0          0          0          0        124   fabs.o
        38          0          0          0          0        116   fpclassifyf.o
        16          6          0          0          0        116   funder.o
       368         48         64          0          0        124   logf.o
       320         26         32          0          0        160   rredf.o
       376         62          0          0          0        160   sinf.o
        58          0          0          0          0        136   sqrtf.o
        92          0          0          0          0          0   __dczerorl2.o
        28          0          0          0          0         68   _chval.o
       158          0          0          0          0         92   _strtoul.o
        26          0          0          0          0         80   atoi.o
        70          0          0          0          0         92   bsearch.o
         8          4        133          0          0         68   ctype_o.o
         0          0          0          0          0          0   entry.o
         8          4          0          0          0          0   entry2.o
         4          0          0          0          0          0   entry5.o
         0          0          0          0          0          0   entry7b.o
         8          4          0          0          0          0   entry8.o
        20         10          0          4          0        136   errno.o
        30          0          0          0          0          0   handlers.o
        36          8          0          0          0         68   init.o
         0          0          0          0          0          0   iusefp.o
        30          0          0          0          0         68   llshl.o
        36          0          0          0          0         68   llsshr.o
        32          0          0          0          0         68   llushr.o
        36          0          0          0          0         68   memcpya.o
        38          0          0          0          0        108   memseta.o
       468         14          0          0          0        180   printf3.o
         0          0          0          4          0          0   stdout.o
        28          0          0          0          0         68   strcat.o
        18          0          0          0          0         68   strchr.o
        16          0          0          0          0         68   strlen.o
        50          0          0          0          0         84   strncasecmp.o
        24          0          0          0          0         76   strncpy.o
        44          0          0          0          0         80   strstr.o
       112          0          0          0          0         88   strtol.o
        12          0          0          0          0         68   tolower.o
        12          0          0          0          0         68   toupper.o
        44          0          0          0          0         80   uidiv.o
        56          0          0          0          0         88   d2f.o
       332          0          0          0          0        148   dadd.o
       222          0          0          0          0        100   ddiv.o
       190          0          0          0          0        176   depilogue.o
        34          0          0          0          0         76   dflti.o
       224          0          0          0          0         96   dmul.o
       108          0          0          0          0        168   fepilogue.o

    ----------------------------------------------------------------------
      4796        350        232          8          0       4016   Library Totals
        10          0          3          0          0          0   (incl. Padding)

    ----------------------------------------------------------------------

      Code (inc. data)   RO Data    RW Data    ZI Data      Debug   Library Name

      2132        306         96          0          0       1252   m_wm.l
      1488         44        133          8          0       1912   mc_w.l
      1166          0          0          0          0        852   mf_w.l

    ----------------------------------------------------------------------
      4796        350        232          8          0       4016   Library Totals

    ----------------------------------------------------------------------

==============================================================================


      Code (inc. data)   RO Data    RW Data    ZI Data      Debug   

     49740       4044       7068       1388       5252     576859   Grand Totals
     49740       4044       7068        360       5252     576859   ELF Image Totals (compressed)
     49740       4044       7068        360          0          0   ROM Totals

==============================================================================

    Total RO  Size (Code + RO Data)                56808 (  55.48kB)
    Total RW  Size (RW Data + ZI Data)              6640 (   6.48kB)
    Total ROM Size (Code + RO Data + RW Data)      57168 (  55.83kB)

==============================================================================

